---
triple:          'arm64-apple-darwin'
binary-path:     '/Users/lovebabbar/Desktop/C++STL Codes/output/heapAlgorithms'
relocations:
  - { offsetInCU: 0x47DD, offset: 0x47DD, size: 0x8, addend: 0x0, symName: __ZNSt3__111__sift_downB8ue170006INS_17_ClassicAlgPolicyERNS_6__lessIvvEENS_11__wrap_iterIPiEEEEvT1_OT0_NS_15iterator_traitsIS8_E15difference_typeES8_, symObjAddr: 0x25F8, symBinAddr: 0x100006384, symSize: 0x2DC }
  - { offsetInCU: 0x48BC, offset: 0x48BC, size: 0x8, addend: 0x0, symName: __ZNSt3__117__floyd_sift_downB8ue170006INS_17_ClassicAlgPolicyERNS_6__lessIvvEENS_11__wrap_iterIPiEEEET1_S8_OT0_NS_15iterator_traitsIS8_E15difference_typeE, symObjAddr: 0x2D70, symBinAddr: 0x100006AFC, symSize: 0x14C }
  - { offsetInCU: 0x4954, offset: 0x4954, size: 0x8, addend: 0x0, symName: __ZNSt3__124__put_character_sequenceB8ue170006IcNS_11char_traitsIcEEEERNS_13basic_ostreamIT_T0_EES7_PKS4_m, symObjAddr: 0x311C, symBinAddr: 0x100006EA8, symSize: 0x1F4 }
  - { offsetInCU: 0x64AD, offset: 0x64AD, size: 0x8, addend: 0x0, symName: __ZNSt3__19make_heapB8ue170006INS_11__wrap_iterIPiEEEEvT_S4_, symObjAddr: 0x2F0, symBinAddr: 0x10000407C, symSize: 0x3C }
  - { offsetInCU: 0x64EC, offset: 0x64EC, size: 0x8, addend: 0x0, symName: __ZNSt3__19push_heapB8ue170006INS_11__wrap_iterIPiEEEEvT_S4_, symObjAddr: 0x38C, symBinAddr: 0x100004118, symSize: 0x3C }
  - { offsetInCU: 0x652B, offset: 0x652B, size: 0x8, addend: 0x0, symName: __ZNSt3__18pop_heapB8ue170006INS_11__wrap_iterIPiEEEEvT_S4_, symObjAddr: 0x3C8, symBinAddr: 0x100004154, symSize: 0x3C }
  - { offsetInCU: 0x656A, offset: 0x656A, size: 0x8, addend: 0x0, symName: __ZNSt3__19sort_heapB8ue170006INS_11__wrap_iterIPiEEEEvT_S4_, symObjAddr: 0x430, symBinAddr: 0x1000041BC, symSize: 0x3C }
  - { offsetInCU: 0x65A9, offset: 0x65A9, size: 0x8, addend: 0x0, symName: __ZNSt3__1neB8ue170006IPiEEbRKNS_11__wrap_iterIT_EES6_, symObjAddr: 0x46C, symBinAddr: 0x1000041F8, symSize: 0x34 }
  - { offsetInCU: 0x65EC, offset: 0x65EC, size: 0x8, addend: 0x0, symName: __ZNSt3__1lsB8ue170006INS_11char_traitsIcEEEERNS_13basic_ostreamIcT_EES6_PKc, symObjAddr: 0x4B8, symBinAddr: 0x100004244, symSize: 0x48 }
  - { offsetInCU: 0x6632, offset: 0x6632, size: 0x8, addend: 0x0, symName: __ZNSt3__14endlB8ue170006IcNS_11char_traitsIcEEEERNS_13basic_ostreamIT_T0_EES7_, symObjAddr: 0x54C, symBinAddr: 0x1000042D8, symSize: 0x58 }
  - { offsetInCU: 0x6672, offset: 0x6672, size: 0x8, addend: 0x0, symName: __ZNSt3__112__to_addressB8ue170006IiEEPT_S2_, symObjAddr: 0xA8C, symBinAddr: 0x100004818, symSize: 0x14 }
  - { offsetInCU: 0x66A7, offset: 0x66A7, size: 0x8, addend: 0x0, symName: __ZNSt3__130__libcpp_is_constant_evaluatedB8ue170006Ev, symObjAddr: 0xB94, symBinAddr: 0x100004920, symSize: 0xC }
  - { offsetInCU: 0x66C4, offset: 0x66C4, size: 0x8, addend: 0x0, symName: __ZNSt3__119__libcpp_deallocateB8ue170006EPvmm, symObjAddr: 0xBA0, symBinAddr: 0x10000492C, symSize: 0x30 }
  - { offsetInCU: 0x670C, offset: 0x670C, size: 0x8, addend: 0x0, symName: __ZNSt3__127__do_deallocate_handle_sizeB8ue170006IJEEEvPvmDpT_, symObjAddr: 0xBD0, symBinAddr: 0x10000495C, symSize: 0x28 }
  - { offsetInCU: 0x674A, offset: 0x674A, size: 0x8, addend: 0x0, symName: __ZNSt3__124__libcpp_operator_deleteB8ue170006IJPvEEEvDpT_, symObjAddr: 0xBF8, symBinAddr: 0x100004984, symSize: 0x24 }
  - { offsetInCU: 0x677F, offset: 0x677F, size: 0x8, addend: 0x0, symName: __ZNSt3__13maxB8ue170006ImEERKT_S3_S3_, symObjAddr: 0x1278, symBinAddr: 0x100005004, symSize: 0x2C }
  - { offsetInCU: 0x67C2, offset: 0x67C2, size: 0x8, addend: 0x0, symName: __ZNSt3__13minB8ue170006ImEERKT_S3_S3_, symObjAddr: 0x12A4, symBinAddr: 0x100005030, symSize: 0x2C }
  - { offsetInCU: 0x6A06, offset: 0x6A06, size: 0x8, addend: 0x0, symName: __ZNSt3__13minB8ue170006ImNS_6__lessIvvEEEERKT_S5_S5_T0_, symObjAddr: 0x1330, symBinAddr: 0x1000050BC, symSize: 0x54 }
  - { offsetInCU: 0x6AD6, offset: 0x6AD6, size: 0x8, addend: 0x0, symName: __ZNSt3__120__throw_length_errorB8ue170006EPKc, symObjAddr: 0x140C, symBinAddr: 0x100005198, symSize: 0x64 }
  - { offsetInCU: 0x6B00, offset: 0x6B00, size: 0x8, addend: 0x0, symName: __ZNSt3__13maxB8ue170006ImNS_6__lessIvvEEEERKT_S5_S5_T0_, symObjAddr: 0x14F0, symBinAddr: 0x10000527C, symSize: 0x54 }
  - { offsetInCU: 0x6B5A, offset: 0x6B5A, size: 0x8, addend: 0x0, symName: __ZNSt3__119__allocate_at_leastB8ue170006INS_9allocatorIiEEEENS_19__allocation_resultINS_16allocator_traitsIT_E7pointerEEERS5_m, symObjAddr: 0x1654, symBinAddr: 0x1000053E0, symSize: 0x40 }
  - { offsetInCU: 0x6B9D, offset: 0x6B9D, size: 0x8, addend: 0x0, symName: __ZNSt3__117__libcpp_allocateB8ue170006Emm, symObjAddr: 0x1804, symBinAddr: 0x100005590, symSize: 0x28 }
  - { offsetInCU: 0x6BDA, offset: 0x6BDA, size: 0x8, addend: 0x0, symName: __ZNSt3__121__libcpp_operator_newB8ue170006IJmEEEPvDpT_, symObjAddr: 0x182C, symBinAddr: 0x1000055B8, symSize: 0x24 }
  - { offsetInCU: 0x6C13, offset: 0x6C13, size: 0x8, addend: 0x0, symName: __ZNSt3__142__uninitialized_allocator_move_if_noexceptB8ue170006INS_9allocatorIiEENS_16reverse_iteratorIPiEES5_ivEET1_RT_T0_S9_S6_, symObjAddr: 0x18B4, symBinAddr: 0x100005640, symSize: 0xE8 }
  - { offsetInCU: 0x6C90, offset: 0x6C90, size: 0x8, addend: 0x0, symName: __ZNSt3__14swapB8ue170006IPiEEvRT_S3_, symObjAddr: 0x19E8, symBinAddr: 0x100005774, symSize: 0x3C }
  - { offsetInCU: 0x6CE1, offset: 0x6CE1, size: 0x8, addend: 0x0, symName: __ZNSt3__1neB8ue170006IPiS1_EEbRKNS_16reverse_iteratorIT_EERKNS2_IT0_EE, symObjAddr: 0x1AD0, symBinAddr: 0x10000585C, symSize: 0x48 }
  - { offsetInCU: 0x6D52, offset: 0x6D52, size: 0x8, addend: 0x0, symName: __ZNSt3__114__construct_atB8ue170006IiJiEPiEEPT_S3_DpOT0_, symObjAddr: 0x1B18, symBinAddr: 0x1000058A4, symSize: 0x2C }
  - { offsetInCU: 0x6DC2, offset: 0x6DC2, size: 0x8, addend: 0x0, symName: __ZNSt3__112__to_addressB8ue170006INS_16reverse_iteratorIPiEEvEEu7__decayIDTclsr19__to_address_helperIT_EE6__callclsr3stdE7declvalIRKS4_EEEEES6_, symObjAddr: 0x1B44, symBinAddr: 0x1000058D0, symSize: 0x24 }
  - { offsetInCU: 0x6DF8, offset: 0x6DF8, size: 0x8, addend: 0x0, symName: __ZNSt3__14moveB8ue170006INS_16reverse_iteratorIPiEES3_EET0_T_S5_S4_, symObjAddr: 0x1BB0, symBinAddr: 0x10000593C, symSize: 0x78 }
  - { offsetInCU: 0x6E7B, offset: 0x6E7B, size: 0x8, addend: 0x0, symName: __ZNSt3__16__moveB8ue170006INS_17_ClassicAlgPolicyENS_16reverse_iteratorIPiEES4_S4_EENS_4pairIT0_T2_EES6_T1_S7_, symObjAddr: 0x1C98, symBinAddr: 0x100005A24, symSize: 0x64 }
  - { offsetInCU: 0x6EE7, offset: 0x6EE7, size: 0x8, addend: 0x0, symName: __ZNSt3__123__dispatch_copy_or_moveB8ue170006INS_17_ClassicAlgPolicyENS_11__move_loopIS1_EENS_14__move_trivialENS_16reverse_iteratorIPiEES7_S7_EENS_4pairIT2_T4_EES9_T3_SA_, symObjAddr: 0x1CFC, symBinAddr: 0x100005A88, symSize: 0x64 }
  - { offsetInCU: 0x6F65, offset: 0x6F65, size: 0x8, addend: 0x0, symName: __ZNSt3__121__unwrap_and_dispatchB8ue170006INS_10__overloadINS_11__move_loopINS_17_ClassicAlgPolicyEEENS_14__move_trivialEEENS_16reverse_iteratorIPiEES9_S9_Li0EEENS_4pairIT0_T2_EESB_T1_SC_, symObjAddr: 0x1D60, symBinAddr: 0x100005AEC, symSize: 0x12C }
  - { offsetInCU: 0x6FF5, offset: 0x6FF5, size: 0x8, addend: 0x0, symName: __ZNSt3__114__unwrap_rangeB8ue170006INS_16reverse_iteratorIPiEES3_EENS_4pairIT0_S5_EET_S7_, symObjAddr: 0x1E8C, symBinAddr: 0x100005C18, symSize: 0x84 }
  - { offsetInCU: 0x7149, offset: 0x7149, size: 0x8, addend: 0x0, symName: __ZNSt3__113__unwrap_iterB8ue170006INS_16reverse_iteratorIPiEENS_18__unwrap_iter_implIS3_Lb0EEELi0EEEDTclsrT0_8__unwrapclsr3stdE7declvalIT_EEEES7_, symObjAddr: 0x1FB0, symBinAddr: 0x100005D3C, symSize: 0x44 }
  - { offsetInCU: 0x718D, offset: 0x718D, size: 0x8, addend: 0x0, symName: __ZNSt3__19make_pairB8ue170006INS_16reverse_iteratorIPiEES3_EENS_4pairINS_18__unwrap_ref_decayIT_E4typeENS5_IT0_E4typeEEEOS6_OS9_, symObjAddr: 0x1FF4, symBinAddr: 0x100005D80, symSize: 0x38 }
  - { offsetInCU: 0x71DC, offset: 0x71DC, size: 0x8, addend: 0x0, symName: __ZNSt3__114__rewrap_rangeB8ue170006INS_16reverse_iteratorIPiEES3_EET_S4_T0_, symObjAddr: 0x202C, symBinAddr: 0x100005DB8, symSize: 0x5C }
  - { offsetInCU: 0x7228, offset: 0x7228, size: 0x8, addend: 0x0, symName: __ZNSt3__113__rewrap_iterB8ue170006INS_16reverse_iteratorIPiEES3_NS_18__unwrap_iter_implIS3_Lb0EEEEET_S6_T0_, symObjAddr: 0x2088, symBinAddr: 0x100005E14, symSize: 0x88 }
  - { offsetInCU: 0x7362, offset: 0x7362, size: 0x8, addend: 0x0, symName: __ZNSt3__19make_heapB8ue170006INS_11__wrap_iterIPiEENS_6__lessIvvEEEEvT_S6_T0_, symObjAddr: 0x249C, symBinAddr: 0x100006228, symSize: 0x40 }
  - { offsetInCU: 0x73B8, offset: 0x73B8, size: 0x8, addend: 0x0, symName: __ZNSt3__111__make_heapB8ue170006INS_17_ClassicAlgPolicyERNS_6__lessIvvEENS_11__wrap_iterIPiEEEEvT1_S8_OT0_, symObjAddr: 0x24DC, symBinAddr: 0x100006268, symSize: 0xD4 }
  - { offsetInCU: 0x745A, offset: 0x745A, size: 0x8, addend: 0x0, symName: __ZNSt3__1miB8ue170006IPiS1_EENS_11__wrap_iterIT_E15difference_typeERKS4_RKNS2_IT0_EE, symObjAddr: 0x25B0, symBinAddr: 0x10000633C, symSize: 0x48 }
  - { offsetInCU: 0x74A6, offset: 0x74A6, size: 0x8, addend: 0x0, symName: __ZNSt3__19push_heapB8ue170006INS_11__wrap_iterIPiEENS_6__lessIvvEEEEvT_S6_T0_, symObjAddr: 0x29B0, symBinAddr: 0x10000673C, symSize: 0x40 }
  - { offsetInCU: 0x74FC, offset: 0x74FC, size: 0x8, addend: 0x0, symName: __ZNSt3__111__push_heapB8ue170006INS_17_ClassicAlgPolicyENS_11__wrap_iterIPiEENS_6__lessIvvEEEEvT0_S7_RT1_, symObjAddr: 0x29F0, symBinAddr: 0x10000677C, symSize: 0x5C }
  - { offsetInCU: 0x7569, offset: 0x7569, size: 0x8, addend: 0x0, symName: __ZNSt3__19__sift_upB8ue170006INS_17_ClassicAlgPolicyERNS_6__lessIvvEENS_11__wrap_iterIPiEEEEvT1_S8_OT0_NS_15iterator_traitsIS8_E15difference_typeE, symObjAddr: 0x2A4C, symBinAddr: 0x1000067D8, symSize: 0x168 }
  - { offsetInCU: 0x7619, offset: 0x7619, size: 0x8, addend: 0x0, symName: __ZNSt3__18pop_heapB8ue170006INS_11__wrap_iterIPiEENS_6__lessIvvEEEEvT_S6_T0_, symObjAddr: 0x2BD4, symBinAddr: 0x100006960, symSize: 0x58 }
  - { offsetInCU: 0x767D, offset: 0x767D, size: 0x8, addend: 0x0, symName: __ZNSt3__110__pop_heapB8ue170006INS_17_ClassicAlgPolicyENS_6__lessIvvEENS_11__wrap_iterIPiEEEEvT1_S7_RT0_NS_15iterator_traitsIS7_E15difference_typeE, symObjAddr: 0x2C2C, symBinAddr: 0x1000069B8, symSize: 0x144 }
  - { offsetInCU: 0x772D, offset: 0x772D, size: 0x8, addend: 0x0, symName: __ZNSt3__1eqB8ue170006IPiEEbRKNS_11__wrap_iterIT_EES6_, symObjAddr: 0x2EBC, symBinAddr: 0x100006C48, symSize: 0x48 }
  - { offsetInCU: 0x7770, offset: 0x7770, size: 0x8, addend: 0x0, symName: __ZNSt3__19sort_heapB8ue170006INS_11__wrap_iterIPiEENS_6__lessIvvEEEEvT_S6_T0_, symObjAddr: 0x3004, symBinAddr: 0x100006D90, symSize: 0x40 }
  - { offsetInCU: 0x77C6, offset: 0x77C6, size: 0x8, addend: 0x0, symName: __ZNSt3__111__sort_heapB8ue170006INS_17_ClassicAlgPolicyERNS_6__lessIvvEENS_11__wrap_iterIPiEEEEvT1_S8_OT0_, symObjAddr: 0x3044, symBinAddr: 0x100006DD0, symSize: 0xC0 }
  - { offsetInCU: 0x7868, offset: 0x7868, size: 0x8, addend: 0x0, symName: __ZNSt3__135__check_strict_weak_ordering_sortedB8ue170006INS_11__wrap_iterIPiEENS_6__lessIvvEEEEvT_S6_RT0_, symObjAddr: 0x3104, symBinAddr: 0x100006E90, symSize: 0x18 }
  - { offsetInCU: 0x78BE, offset: 0x78BE, size: 0x8, addend: 0x0, symName: __ZNSt3__116__pad_and_outputB8ue170006IcNS_11char_traitsIcEEEENS_19ostreambuf_iteratorIT_T0_EES6_PKS4_S8_S8_RNS_8ios_baseES4_, symObjAddr: 0x3374, symBinAddr: 0x100007100, symSize: 0x248 }
  - { offsetInCU: 0x798D, offset: 0x798D, size: 0x8, addend: 0x0, symName: __ZNSt3__112__to_addressB8ue170006IKcEEPT_S3_, symObjAddr: 0x38E4, symBinAddr: 0x100007670, symSize: 0x14 }
  - { offsetInCU: 0x79F5, offset: 0x79F5, size: 0x8, addend: 0x0, symName: __ZNSt3__19use_facetB8ue170006INS_5ctypeIcEEEERKT_RKNS_6localeE, symObjAddr: 0x3BBC, symBinAddr: 0x100007948, symSize: 0x2C }
  - { offsetInCU: 0x7EC2, offset: 0x7EC2, size: 0x8, addend: 0x0, symName: __ZNSt3__118__constexpr_strlenB8ue170006EPKc, symObjAddr: 0x3C54, symBinAddr: 0x1000079E0, symSize: 0x24 }
  - { offsetInCU: 0x80ED, offset: 0x80ED, size: 0x8, addend: 0x0, symName: __ZSt28__throw_bad_array_new_lengthB8ue170006v, symObjAddr: 0x17D0, symBinAddr: 0x10000555C, symSize: 0x34 }
  - { offsetInCU: 0x8584, offset: 0x8584, size: 0x8, addend: 0x0, symName: __ZNSt3__16vectorIiNS_9allocatorIiEEE26__swap_out_circular_bufferERNS_14__split_bufferIiRS2_EE, symObjAddr: 0x10AC, symBinAddr: 0x100004E38, symSize: 0x110 }
  - { offsetInCU: 0xAA02, offset: 0xAA02, size: 0x8, addend: 0x0, symName: _main, symObjAddr: 0x0, symBinAddr: 0x100003D8C, symSize: 0x258 }
  - { offsetInCU: 0xAA7E, offset: 0xAA7E, size: 0x8, addend: 0x0, symName: __ZNSt3__16vectorIiNS_9allocatorIiEEEC1B8ue170006Ev, symObjAddr: 0x258, symBinAddr: 0x100003FE4, symSize: 0x2C }
  - { offsetInCU: 0xAAA6, offset: 0xAAA6, size: 0x8, addend: 0x0, symName: __ZNSt3__16vectorIiNS_9allocatorIiEEE9push_backB8ue170006EOi, symObjAddr: 0x284, symBinAddr: 0x100004010, symSize: 0x6C }
  - { offsetInCU: 0xAADB, offset: 0xAADB, size: 0x8, addend: 0x0, symName: __ZNSt3__16vectorIiNS_9allocatorIiEEE5beginB8ue170006Ev, symObjAddr: 0x32C, symBinAddr: 0x1000040B8, symSize: 0x30 }
  - { offsetInCU: 0xAB01, offset: 0xAB01, size: 0x8, addend: 0x0, symName: __ZNSt3__16vectorIiNS_9allocatorIiEEE3endB8ue170006Ev, symObjAddr: 0x35C, symBinAddr: 0x1000040E8, symSize: 0x30 }
  - { offsetInCU: 0xAB27, offset: 0xAB27, size: 0x8, addend: 0x0, symName: __ZNSt3__16vectorIiNS_9allocatorIiEEE8pop_backEv, symObjAddr: 0x404, symBinAddr: 0x100004190, symSize: 0x2C }
  - { offsetInCU: 0xAB4E, offset: 0xAB4E, size: 0x8, addend: 0x0, symName: __ZNKSt3__111__wrap_iterIPiEdeB8ue170006Ev, symObjAddr: 0x4A0, symBinAddr: 0x10000422C, symSize: 0x18 }
  - { offsetInCU: 0xAB73, offset: 0xAB73, size: 0x8, addend: 0x0, symName: __ZNSt3__111__wrap_iterIPiEppB8ue170006Ev, symObjAddr: 0x500, symBinAddr: 0x10000428C, symSize: 0x20 }
  - { offsetInCU: 0xAB98, offset: 0xAB98, size: 0x8, addend: 0x0, symName: __ZNSt3__113basic_ostreamIcNS_11char_traitsIcEEElsB8ue170006EPFRS3_S4_E, symObjAddr: 0x520, symBinAddr: 0x1000042AC, symSize: 0x2C }
  - { offsetInCU: 0xABCB, offset: 0xABCB, size: 0x8, addend: 0x0, symName: __ZNSt3__16vectorIiNS_9allocatorIiEEED1B8ue170006Ev, symObjAddr: 0x5A4, symBinAddr: 0x100004330, symSize: 0x2C }
  - { offsetInCU: 0xABF4, offset: 0xABF4, size: 0x8, addend: 0x0, symName: __ZNSt3__16vectorIiNS_9allocatorIiEEEC2B8ue170006Ev, symObjAddr: 0x5DC, symBinAddr: 0x100004368, symSize: 0x44 }
  - { offsetInCU: 0xAC27, offset: 0xAC27, size: 0x8, addend: 0x0, symName: __ZNSt3__117__compressed_pairIPiNS_9allocatorIiEEEC1B8ue170006IDnNS_18__default_init_tagEEEOT_OT0_, symObjAddr: 0x620, symBinAddr: 0x1000043AC, symSize: 0x3C }
  - { offsetInCU: 0xAC7E, offset: 0xAC7E, size: 0x8, addend: 0x0, symName: __ZNSt3__117__compressed_pairIPiNS_9allocatorIiEEEC2B8ue170006IDnNS_18__default_init_tagEEEOT_OT0_, symObjAddr: 0x65C, symBinAddr: 0x1000043E8, symSize: 0x40 }
  - { offsetInCU: 0xACD5, offset: 0xACD5, size: 0x8, addend: 0x0, symName: __ZNSt3__122__compressed_pair_elemIPiLi0ELb0EEC2B8ue170006IDnvEEOT_, symObjAddr: 0x69C, symBinAddr: 0x100004428, symSize: 0x1C }
  - { offsetInCU: 0xAD16, offset: 0xAD16, size: 0x8, addend: 0x0, symName: __ZNSt3__122__compressed_pair_elemINS_9allocatorIiEELi1ELb1EEC2B8ue170006ENS_18__default_init_tagE, symObjAddr: 0x6B8, symBinAddr: 0x100004444, symSize: 0x2C }
  - { offsetInCU: 0xAD4A, offset: 0xAD4A, size: 0x8, addend: 0x0, symName: __ZNSt3__19allocatorIiEC2B8ue170006Ev, symObjAddr: 0x6E4, symBinAddr: 0x100004470, symSize: 0x2C }
  - { offsetInCU: 0xAD73, offset: 0xAD73, size: 0x8, addend: 0x0, symName: __ZNSt3__116__non_trivial_ifILb1ENS_9allocatorIiEEEC2B8ue170006Ev, symObjAddr: 0x710, symBinAddr: 0x10000449C, symSize: 0x14 }
  - { offsetInCU: 0xAD9C, offset: 0xAD9C, size: 0x8, addend: 0x0, symName: __ZNSt3__16vectorIiNS_9allocatorIiEEED2B8ue170006Ev, symObjAddr: 0x724, symBinAddr: 0x1000044B0, symSize: 0x3C }
  - { offsetInCU: 0xADC5, offset: 0xADC5, size: 0x8, addend: 0x0, symName: __ZNSt3__16vectorIiNS_9allocatorIiEEE16__destroy_vectorC1B8ue170006ERS3_, symObjAddr: 0x760, symBinAddr: 0x1000044EC, symSize: 0x34 }
  - { offsetInCU: 0xADFD, offset: 0xADFD, size: 0x8, addend: 0x0, symName: __ZNSt3__16vectorIiNS_9allocatorIiEEE16__destroy_vectorclB8ue170006Ev, symObjAddr: 0x794, symBinAddr: 0x100004520, symSize: 0x90 }
  - { offsetInCU: 0xAE22, offset: 0xAE22, size: 0x8, addend: 0x0, symName: __ZNSt3__16vectorIiNS_9allocatorIiEEE16__destroy_vectorC2B8ue170006ERS3_, symObjAddr: 0x824, symBinAddr: 0x1000045B0, symSize: 0x20 }
  - { offsetInCU: 0xAE5A, offset: 0xAE5A, size: 0x8, addend: 0x0, symName: __ZNSt3__16vectorIiNS_9allocatorIiEEE7__clearB8ue170006Ev, symObjAddr: 0x844, symBinAddr: 0x1000045D0, symSize: 0x28 }
  - { offsetInCU: 0xAE7F, offset: 0xAE7F, size: 0x8, addend: 0x0, symName: __ZNKSt3__16vectorIiNS_9allocatorIiEEE17__annotate_deleteB8ue170006Ev, symObjAddr: 0x86C, symBinAddr: 0x1000045F8, symSize: 0xB8 }
  - { offsetInCU: 0xAEA4, offset: 0xAEA4, size: 0x8, addend: 0x0, symName: __ZNSt3__116allocator_traitsINS_9allocatorIiEEE10deallocateB8ue170006ERS2_Pim, symObjAddr: 0x924, symBinAddr: 0x1000046B0, symSize: 0x34 }
  - { offsetInCU: 0xAEE6, offset: 0xAEE6, size: 0x8, addend: 0x0, symName: __ZNSt3__16vectorIiNS_9allocatorIiEEE7__allocB8ue170006Ev, symObjAddr: 0x958, symBinAddr: 0x1000046E4, symSize: 0x28 }
  - { offsetInCU: 0xAF0B, offset: 0xAF0B, size: 0x8, addend: 0x0, symName: __ZNKSt3__16vectorIiNS_9allocatorIiEEE8capacityB8ue170006Ev, symObjAddr: 0x980, symBinAddr: 0x10000470C, symSize: 0x40 }
  - { offsetInCU: 0xAF30, offset: 0xAF30, size: 0x8, addend: 0x0, symName: __ZNSt3__16vectorIiNS_9allocatorIiEEE22__base_destruct_at_endB8ue170006EPi, symObjAddr: 0x9C0, symBinAddr: 0x10000474C, symSize: 0xA0 }
  - { offsetInCU: 0xAF73, offset: 0xAF73, size: 0x8, addend: 0x0, symName: __ZNSt3__116allocator_traitsINS_9allocatorIiEEE7destroyB8ue170006IivEEvRS2_PT_, symObjAddr: 0xA60, symBinAddr: 0x1000047EC, symSize: 0x2C }
  - { offsetInCU: 0xAFB0, offset: 0xAFB0, size: 0x8, addend: 0x0, symName: __ZNSt3__19allocatorIiE7destroyB8ue170006EPi, symObjAddr: 0xAA0, symBinAddr: 0x10000482C, symSize: 0x14 }
  - { offsetInCU: 0xAFE3, offset: 0xAFE3, size: 0x8, addend: 0x0, symName: __ZNKSt3__16vectorIiNS_9allocatorIiEEE31__annotate_contiguous_containerB8ue170006EPKvS5_S5_S5_, symObjAddr: 0xAB4, symBinAddr: 0x100004840, symSize: 0x20 }
  - { offsetInCU: 0xB034, offset: 0xB034, size: 0x8, addend: 0x0, symName: __ZNKSt3__16vectorIiNS_9allocatorIiEEE4dataB8ue170006Ev, symObjAddr: 0xAD4, symBinAddr: 0x100004860, symSize: 0x28 }
  - { offsetInCU: 0xB059, offset: 0xB059, size: 0x8, addend: 0x0, symName: __ZNKSt3__16vectorIiNS_9allocatorIiEEE4sizeB8ue170006Ev, symObjAddr: 0xAFC, symBinAddr: 0x100004888, symSize: 0x28 }
  - { offsetInCU: 0xB07E, offset: 0xB07E, size: 0x8, addend: 0x0, symName: __ZNSt3__19allocatorIiE10deallocateB8ue170006EPim, symObjAddr: 0xB24, symBinAddr: 0x1000048B0, symSize: 0x70 }
  - { offsetInCU: 0xB0BF, offset: 0xB0BF, size: 0x8, addend: 0x0, symName: __ZNSt3__117__compressed_pairIPiNS_9allocatorIiEEE6secondB8ue170006Ev, symObjAddr: 0xC1C, symBinAddr: 0x1000049A8, symSize: 0x24 }
  - { offsetInCU: 0xB0E4, offset: 0xB0E4, size: 0x8, addend: 0x0, symName: __ZNSt3__122__compressed_pair_elemINS_9allocatorIiEELi1ELb1EE5__getB8ue170006Ev, symObjAddr: 0xC40, symBinAddr: 0x1000049CC, symSize: 0x14 }
  - { offsetInCU: 0xB109, offset: 0xB109, size: 0x8, addend: 0x0, symName: __ZNKSt3__16vectorIiNS_9allocatorIiEEE9__end_capB8ue170006Ev, symObjAddr: 0xC54, symBinAddr: 0x1000049E0, symSize: 0x28 }
  - { offsetInCU: 0xB12E, offset: 0xB12E, size: 0x8, addend: 0x0, symName: __ZNKSt3__117__compressed_pairIPiNS_9allocatorIiEEE5firstB8ue170006Ev, symObjAddr: 0xC7C, symBinAddr: 0x100004A08, symSize: 0x24 }
  - { offsetInCU: 0xB153, offset: 0xB153, size: 0x8, addend: 0x0, symName: __ZNKSt3__122__compressed_pair_elemIPiLi0ELb0EE5__getB8ue170006Ev, symObjAddr: 0xCA0, symBinAddr: 0x100004A2C, symSize: 0x14 }
  - { offsetInCU: 0xB178, offset: 0xB178, size: 0x8, addend: 0x0, symName: __ZNSt3__16vectorIiNS_9allocatorIiEEE9__end_capB8ue170006Ev, symObjAddr: 0xCB4, symBinAddr: 0x100004A40, symSize: 0x28 }
  - { offsetInCU: 0xB1A2, offset: 0xB1A2, size: 0x8, addend: 0x0, symName: __ZNSt3__16vectorIiNS_9allocatorIiEEE22__construct_one_at_endB8ue170006IJiEEEvDpOT_, symObjAddr: 0xCDC, symBinAddr: 0x100004A68, symSize: 0x98 }
  - { offsetInCU: 0xB1EF, offset: 0xB1EF, size: 0x8, addend: 0x0, symName: __ZNSt3__16vectorIiNS_9allocatorIiEEE21__push_back_slow_pathIiEEvOT_, symObjAddr: 0xD74, symBinAddr: 0x100004B00, symSize: 0xE0 }
  - { offsetInCU: 0xB24C, offset: 0xB24C, size: 0x8, addend: 0x0, symName: __ZNSt3__117__compressed_pairIPiNS_9allocatorIiEEE5firstB8ue170006Ev, symObjAddr: 0xE54, symBinAddr: 0x100004BE0, symSize: 0x24 }
  - { offsetInCU: 0xB271, offset: 0xB271, size: 0x8, addend: 0x0, symName: __ZNSt3__122__compressed_pair_elemIPiLi0ELb0EE5__getB8ue170006Ev, symObjAddr: 0xE78, symBinAddr: 0x100004C04, symSize: 0x14 }
  - { offsetInCU: 0xB2AF, offset: 0xB2AF, size: 0x8, addend: 0x0, symName: __ZNSt3__16vectorIiNS_9allocatorIiEEE21_ConstructTransactionC1B8ue170006ERS3_m, symObjAddr: 0xE8C, symBinAddr: 0x100004C18, symSize: 0x3C }
  - { offsetInCU: 0xB2F6, offset: 0xB2F6, size: 0x8, addend: 0x0, symName: __ZNSt3__116allocator_traitsINS_9allocatorIiEEE9constructB8ue170006IiJiEvEEvRS2_PT_DpOT0_, symObjAddr: 0xEC8, symBinAddr: 0x100004C54, symSize: 0x34 }
  - { offsetInCU: 0xB34D, offset: 0xB34D, size: 0x8, addend: 0x0, symName: __ZNSt3__16vectorIiNS_9allocatorIiEEE21_ConstructTransactionD1B8ue170006Ev, symObjAddr: 0xEFC, symBinAddr: 0x100004C88, symSize: 0x2C }
  - { offsetInCU: 0xB376, offset: 0xB376, size: 0x8, addend: 0x0, symName: __ZNSt3__16vectorIiNS_9allocatorIiEEE21_ConstructTransactionC2B8ue170006ERS3_m, symObjAddr: 0xF28, symBinAddr: 0x100004CB4, symSize: 0x44 }
  - { offsetInCU: 0xB3BD, offset: 0xB3BD, size: 0x8, addend: 0x0, symName: __ZNSt3__19allocatorIiE9constructB8ue170006IiJiEEEvPT_DpOT0_, symObjAddr: 0xF6C, symBinAddr: 0x100004CF8, symSize: 0x28 }
  - { offsetInCU: 0xB412, offset: 0xB412, size: 0x8, addend: 0x0, symName: __ZNSt3__16vectorIiNS_9allocatorIiEEE21_ConstructTransactionD2B8ue170006Ev, symObjAddr: 0xF94, symBinAddr: 0x100004D20, symSize: 0x20 }
  - { offsetInCU: 0xB43A, offset: 0xB43A, size: 0x8, addend: 0x0, symName: __ZNKSt3__16vectorIiNS_9allocatorIiEEE11__recommendB8ue170006Em, symObjAddr: 0xFB4, symBinAddr: 0x100004D40, symSize: 0xB4 }
  - { offsetInCU: 0xB48E, offset: 0xB48E, size: 0x8, addend: 0x0, symName: __ZNSt3__114__split_bufferIiRNS_9allocatorIiEEEC1EmmS3_, symObjAddr: 0x1068, symBinAddr: 0x100004DF4, symSize: 0x44 }
  - { offsetInCU: 0xB4E3, offset: 0xB4E3, size: 0x8, addend: 0x0, symName: __ZNSt3__114__split_bufferIiRNS_9allocatorIiEEED1Ev, symObjAddr: 0x11BC, symBinAddr: 0x100004F48, symSize: 0x2C }
  - { offsetInCU: 0xB50D, offset: 0xB50D, size: 0x8, addend: 0x0, symName: __ZNKSt3__16vectorIiNS_9allocatorIiEEE8max_sizeEv, symObjAddr: 0x11E8, symBinAddr: 0x100004F74, symSize: 0x74 }
  - { offsetInCU: 0xB534, offset: 0xB534, size: 0x8, addend: 0x0, symName: __ZNKSt3__16vectorIiNS_9allocatorIiEEE20__throw_length_errorB8ue170006Ev, symObjAddr: 0x125C, symBinAddr: 0x100004FE8, symSize: 0x1C }
  - { offsetInCU: 0xB563, offset: 0xB563, size: 0x8, addend: 0x0, symName: __ZNSt3__116allocator_traitsINS_9allocatorIiEEE8max_sizeB8ue170006IS2_vEEmRKS2_, symObjAddr: 0x12D0, symBinAddr: 0x10000505C, symSize: 0x24 }
  - { offsetInCU: 0xB591, offset: 0xB591, size: 0x8, addend: 0x0, symName: __ZNKSt3__16vectorIiNS_9allocatorIiEEE7__allocB8ue170006Ev, symObjAddr: 0x12F4, symBinAddr: 0x100005080, symSize: 0x28 }
  - { offsetInCU: 0xB5B6, offset: 0xB5B6, size: 0x8, addend: 0x0, symName: __ZNSt3__114numeric_limitsIlE3maxB8ue170006Ev, symObjAddr: 0x131C, symBinAddr: 0x1000050A8, symSize: 0x14 }
  - { offsetInCU: 0xB5DE, offset: 0xB5DE, size: 0x8, addend: 0x0, symName: __ZNKSt3__16__lessIvvEclB8ue170006ImmEEbRKT_RKT0_, symObjAddr: 0x1384, symBinAddr: 0x100005110, symSize: 0x34 }
  - { offsetInCU: 0xB631, offset: 0xB631, size: 0x8, addend: 0x0, symName: __ZNKSt3__19allocatorIiE8max_sizeB8ue170006Ev, symObjAddr: 0x13B8, symBinAddr: 0x100005144, symSize: 0x14 }
  - { offsetInCU: 0xB656, offset: 0xB656, size: 0x8, addend: 0x0, symName: __ZNKSt3__117__compressed_pairIPiNS_9allocatorIiEEE6secondB8ue170006Ev, symObjAddr: 0x13CC, symBinAddr: 0x100005158, symSize: 0x24 }
  - { offsetInCU: 0xB67B, offset: 0xB67B, size: 0x8, addend: 0x0, symName: __ZNKSt3__122__compressed_pair_elemINS_9allocatorIiEELi1ELb1EE5__getB8ue170006Ev, symObjAddr: 0x13F0, symBinAddr: 0x10000517C, symSize: 0x14 }
  - { offsetInCU: 0xB6A0, offset: 0xB6A0, size: 0x8, addend: 0x0, symName: __ZNSt3__123__libcpp_numeric_limitsIlLb1EE3maxB8ue170006Ev, symObjAddr: 0x1404, symBinAddr: 0x100005190, symSize: 0x8 }
  - { offsetInCU: 0xB6B4, offset: 0xB6B4, size: 0x8, addend: 0x0, symName: __ZNSt12length_errorC1B8ue170006EPKc, symObjAddr: 0x1470, symBinAddr: 0x1000051FC, symSize: 0x34 }
  - { offsetInCU: 0xB6EB, offset: 0xB6EB, size: 0x8, addend: 0x0, symName: __ZNSt12length_errorC2B8ue170006EPKc, symObjAddr: 0x14A4, symBinAddr: 0x100005230, symSize: 0x4C }
  - { offsetInCU: 0xB722, offset: 0xB722, size: 0x8, addend: 0x0, symName: __ZNSt3__114__split_bufferIiRNS_9allocatorIiEEEC2EmmS3_, symObjAddr: 0x1544, symBinAddr: 0x1000052D0, symSize: 0xD4 }
  - { offsetInCU: 0xB794, offset: 0xB794, size: 0x8, addend: 0x0, symName: __ZNSt3__117__compressed_pairIPiRNS_9allocatorIiEEEC1B8ue170006IDnS4_EEOT_OT0_, symObjAddr: 0x1618, symBinAddr: 0x1000053A4, symSize: 0x3C }
  - { offsetInCU: 0xB7EB, offset: 0xB7EB, size: 0x8, addend: 0x0, symName: __ZNSt3__114__split_bufferIiRNS_9allocatorIiEEE7__allocB8ue170006Ev, symObjAddr: 0x1694, symBinAddr: 0x100005420, symSize: 0x28 }
  - { offsetInCU: 0xB810, offset: 0xB810, size: 0x8, addend: 0x0, symName: __ZNSt3__114__split_bufferIiRNS_9allocatorIiEEE9__end_capB8ue170006Ev, symObjAddr: 0x16BC, symBinAddr: 0x100005448, symSize: 0x28 }
  - { offsetInCU: 0xB835, offset: 0xB835, size: 0x8, addend: 0x0, symName: __ZNSt3__117__compressed_pairIPiRNS_9allocatorIiEEEC2B8ue170006IDnS4_EEOT_OT0_, symObjAddr: 0x16E4, symBinAddr: 0x100005470, symSize: 0x48 }
  - { offsetInCU: 0xB88C, offset: 0xB88C, size: 0x8, addend: 0x0, symName: __ZNSt3__122__compressed_pair_elemIRNS_9allocatorIiEELi1ELb0EEC2B8ue170006IS3_vEEOT_, symObjAddr: 0x172C, symBinAddr: 0x1000054B8, symSize: 0x20 }
  - { offsetInCU: 0xB8CD, offset: 0xB8CD, size: 0x8, addend: 0x0, symName: __ZNSt3__19allocatorIiE8allocateB8ue170006Em, symObjAddr: 0x174C, symBinAddr: 0x1000054D8, symSize: 0x84 }
  - { offsetInCU: 0xB900, offset: 0xB900, size: 0x8, addend: 0x0, symName: __ZNSt3__117__compressed_pairIPiRNS_9allocatorIiEEE6secondB8ue170006Ev, symObjAddr: 0x1850, symBinAddr: 0x1000055DC, symSize: 0x28 }
  - { offsetInCU: 0xB925, offset: 0xB925, size: 0x8, addend: 0x0, symName: __ZNSt3__122__compressed_pair_elemIRNS_9allocatorIiEELi1ELb0EE5__getB8ue170006Ev, symObjAddr: 0x1878, symBinAddr: 0x100005604, symSize: 0x18 }
  - { offsetInCU: 0xB94A, offset: 0xB94A, size: 0x8, addend: 0x0, symName: __ZNSt3__117__compressed_pairIPiRNS_9allocatorIiEEE5firstB8ue170006Ev, symObjAddr: 0x1890, symBinAddr: 0x10000561C, symSize: 0x24 }
  - { offsetInCU: 0xB96F, offset: 0xB96F, size: 0x8, addend: 0x0, symName: __ZNSt3__116reverse_iteratorIPiEC1B8ue170006ES1_, symObjAddr: 0x199C, symBinAddr: 0x100005728, symSize: 0x34 }
  - { offsetInCU: 0xB9A6, offset: 0xB9A6, size: 0x8, addend: 0x0, symName: __ZNKSt3__116reverse_iteratorIPiE4baseB8ue170006Ev, symObjAddr: 0x19D0, symBinAddr: 0x10000575C, symSize: 0x18 }
  - { offsetInCU: 0xB9CB, offset: 0xB9CB, size: 0x8, addend: 0x0, symName: __ZNKSt3__16vectorIiNS_9allocatorIiEEE14__annotate_newB8ue170006Em, symObjAddr: 0x1A24, symBinAddr: 0x1000057B0, symSize: 0xAC }
  - { offsetInCU: 0xB9FF, offset: 0xB9FF, size: 0x8, addend: 0x0, symName: __ZNKSt3__116reverse_iteratorIPiEdeB8ue170006Ev, symObjAddr: 0x1B68, symBinAddr: 0x1000058F4, symSize: 0x28 }
  - { offsetInCU: 0xBA32, offset: 0xBA32, size: 0x8, addend: 0x0, symName: __ZNSt3__116reverse_iteratorIPiEppB8ue170006Ev, symObjAddr: 0x1B90, symBinAddr: 0x10000591C, symSize: 0x20 }
  - { offsetInCU: 0xBA5C, offset: 0xBA5C, size: 0x8, addend: 0x0, symName: __ZNSt3__119__to_address_helperINS_16reverse_iteratorIPiEEvE6__callB8ue170006ERKS3_, symObjAddr: 0x1C28, symBinAddr: 0x1000059B4, symSize: 0x4C }
  - { offsetInCU: 0xBA7F, offset: 0xBA7F, size: 0x8, addend: 0x0, symName: __ZNKSt3__116reverse_iteratorIPiEptB8ue170006Ev, symObjAddr: 0x1C74, symBinAddr: 0x100005A00, symSize: 0x24 }
  - { offsetInCU: 0xBAC7, offset: 0xBAC7, size: 0x8, addend: 0x0, symName: __ZNKSt3__111__move_loopINS_17_ClassicAlgPolicyEEclB8ue170006INS_16reverse_iteratorIPiEES6_S6_EENS_4pairIT_T1_EES8_T0_S9_, symObjAddr: 0x1F10, symBinAddr: 0x100005C9C, symSize: 0xA0 }
  - { offsetInCU: 0xBB31, offset: 0xBB31, size: 0x8, addend: 0x0, symName: __ZNSt3__18_IterOpsINS_17_ClassicAlgPolicyEE11__iter_moveB8ue170006IRNS_16reverse_iteratorIPiEEEENS_9enable_ifIXsr12is_referenceIDTdeclsr3stdE7declvalIRT_EEEEE5valueEDTclsr3stdE4movedeclsr3stdE7declvalISA_EEEEE4typeEOS9_, symObjAddr: 0x2110, symBinAddr: 0x100005E9C, symSize: 0x28 }
  - { offsetInCU: 0xBB5D, offset: 0xBB5D, size: 0x8, addend: 0x0, symName: __ZNSt3__18_IterOpsINS_17_ClassicAlgPolicyEE25__validate_iter_referenceB8ue170006IRNS_16reverse_iteratorIPiEEEEvv, symObjAddr: 0x2138, symBinAddr: 0x100005EC4, symSize: 0x4 }
  - { offsetInCU: 0xBB7B, offset: 0xBB7B, size: 0x8, addend: 0x0, symName: __ZNSt3__118__unwrap_iter_implINS_16reverse_iteratorIPiEELb0EE8__unwrapB8ue170006ES3_, symObjAddr: 0x213C, symBinAddr: 0x100005EC8, symSize: 0x24 }
  - { offsetInCU: 0xBB9E, offset: 0xBB9E, size: 0x8, addend: 0x0, symName: __ZNSt3__14pairINS_16reverse_iteratorIPiEES3_EC1B8ue170006ERKS3_S6_, symObjAddr: 0x2160, symBinAddr: 0x100005EEC, symSize: 0x3C }
  - { offsetInCU: 0xBBE3, offset: 0xBBE3, size: 0x8, addend: 0x0, symName: __ZNSt3__14pairINS_16reverse_iteratorIPiEES3_EC2B8ue170006ERKS3_S6_, symObjAddr: 0x219C, symBinAddr: 0x100005F28, symSize: 0x34 }
  - { offsetInCU: 0xBC28, offset: 0xBC28, size: 0x8, addend: 0x0, symName: __ZNSt3__118__unwrap_iter_implINS_16reverse_iteratorIPiEELb0EE8__rewrapB8ue170006ES3_S3_, symObjAddr: 0x21D0, symBinAddr: 0x100005F5C, symSize: 0x2C }
  - { offsetInCU: 0xBC56, offset: 0xBC56, size: 0x8, addend: 0x0, symName: __ZNSt3__116reverse_iteratorIPiEC2B8ue170006ES1_, symObjAddr: 0x21FC, symBinAddr: 0x100005F88, symSize: 0x28 }
  - { offsetInCU: 0xBC8D, offset: 0xBC8D, size: 0x8, addend: 0x0, symName: __ZNSt3__114__split_bufferIiRNS_9allocatorIiEEED2Ev, symObjAddr: 0x2224, symBinAddr: 0x100005FB0, symSize: 0x80 }
  - { offsetInCU: 0xBCB8, offset: 0xBCB8, size: 0x8, addend: 0x0, symName: __ZNSt3__114__split_bufferIiRNS_9allocatorIiEEE5clearB8ue170006Ev, symObjAddr: 0x22A4, symBinAddr: 0x100006030, symSize: 0x28 }
  - { offsetInCU: 0xBCDD, offset: 0xBCDD, size: 0x8, addend: 0x0, symName: __ZNKSt3__114__split_bufferIiRNS_9allocatorIiEEE8capacityB8ue170006Ev, symObjAddr: 0x22CC, symBinAddr: 0x100006058, symSize: 0x40 }
  - { offsetInCU: 0xBD02, offset: 0xBD02, size: 0x8, addend: 0x0, symName: __ZNSt3__114__split_bufferIiRNS_9allocatorIiEEE17__destruct_at_endB8ue170006EPi, symObjAddr: 0x230C, symBinAddr: 0x100006098, symSize: 0x2C }
  - { offsetInCU: 0xBD34, offset: 0xBD34, size: 0x8, addend: 0x0, symName: __ZNSt3__114__split_bufferIiRNS_9allocatorIiEEE17__destruct_at_endB8ue170006EPiNS_17integral_constantIbLb0EEE, symObjAddr: 0x2338, symBinAddr: 0x1000060C4, symSize: 0x94 }
  - { offsetInCU: 0xBD74, offset: 0xBD74, size: 0x8, addend: 0x0, symName: __ZNKSt3__114__split_bufferIiRNS_9allocatorIiEEE9__end_capB8ue170006Ev, symObjAddr: 0x23CC, symBinAddr: 0x100006158, symSize: 0x28 }
  - { offsetInCU: 0xBD99, offset: 0xBD99, size: 0x8, addend: 0x0, symName: __ZNKSt3__117__compressed_pairIPiRNS_9allocatorIiEEE5firstB8ue170006Ev, symObjAddr: 0x23F4, symBinAddr: 0x100006180, symSize: 0x24 }
  - { offsetInCU: 0xBDBE, offset: 0xBDBE, size: 0x8, addend: 0x0, symName: __ZNSt3__16vectorIiNS_9allocatorIiEEE11__make_iterB8ue170006EPi, symObjAddr: 0x2418, symBinAddr: 0x1000061A4, symSize: 0x30 }
  - { offsetInCU: 0xBDF2, offset: 0xBDF2, size: 0x8, addend: 0x0, symName: __ZNSt3__111__wrap_iterIPiEC1B8ue170006ES1_, symObjAddr: 0x2448, symBinAddr: 0x1000061D4, symSize: 0x34 }
  - { offsetInCU: 0xBE29, offset: 0xBE29, size: 0x8, addend: 0x0, symName: __ZNSt3__111__wrap_iterIPiEC2B8ue170006ES1_, symObjAddr: 0x247C, symBinAddr: 0x100006208, symSize: 0x20 }
  - { offsetInCU: 0xBE60, offset: 0xBE60, size: 0x8, addend: 0x0, symName: __ZNKSt3__111__wrap_iterIPiEplB8ue170006El, symObjAddr: 0x28D4, symBinAddr: 0x100006660, symSize: 0x3C }
  - { offsetInCU: 0xBEA1, offset: 0xBEA1, size: 0x8, addend: 0x0, symName: __ZNKSt3__111__wrap_iterIPiE4baseB8ue170006Ev, symObjAddr: 0x2910, symBinAddr: 0x10000669C, symSize: 0x18 }
  - { offsetInCU: 0xBEC6, offset: 0xBEC6, size: 0x8, addend: 0x0, symName: __ZNKSt3__16__lessIvvEclB8ue170006IiiEEbRKT_RKT0_, symObjAddr: 0x2928, symBinAddr: 0x1000066B4, symSize: 0x34 }
  - { offsetInCU: 0xBF19, offset: 0xBF19, size: 0x8, addend: 0x0, symName: __ZNSt3__18_IterOpsINS_17_ClassicAlgPolicyEE11__iter_moveB8ue170006IRNS_11__wrap_iterIPiEEEENS_9enable_ifIXsr12is_referenceIDTdeclsr3stdE7declvalIRT_EEEEE5valueEDTclsr3stdE4movedeclsr3stdE7declvalISA_EEEEE4typeEOS9_, symObjAddr: 0x295C, symBinAddr: 0x1000066E8, symSize: 0x28 }
  - { offsetInCU: 0xBF45, offset: 0xBF45, size: 0x8, addend: 0x0, symName: __ZNSt3__18_IterOpsINS_17_ClassicAlgPolicyEE25__validate_iter_referenceB8ue170006IRNS_11__wrap_iterIPiEEEEvv, symObjAddr: 0x2984, symBinAddr: 0x100006710, symSize: 0x4 }
  - { offsetInCU: 0xBF63, offset: 0xBF63, size: 0x8, addend: 0x0, symName: __ZNSt3__111__wrap_iterIPiEpLB8ue170006El, symObjAddr: 0x2988, symBinAddr: 0x100006714, symSize: 0x28 }
  - { offsetInCU: 0xBF96, offset: 0xBF96, size: 0x8, addend: 0x0, symName: __ZNSt3__111__wrap_iterIPiEmmB8ue170006Ev, symObjAddr: 0x2BB4, symBinAddr: 0x100006940, symSize: 0x20 }
  - { offsetInCU: 0xBFBB, offset: 0xBFBB, size: 0x8, addend: 0x0, symName: __ZNSt3__16vectorIiNS_9allocatorIiEEE17__destruct_at_endB8ue170006EPi, symObjAddr: 0x2F04, symBinAddr: 0x100006C90, symSize: 0x4C }
  - { offsetInCU: 0xBFFE, offset: 0xBFFE, size: 0x8, addend: 0x0, symName: __ZNKSt3__16vectorIiNS_9allocatorIiEEE17__annotate_shrinkB8ue170006Em, symObjAddr: 0x2F50, symBinAddr: 0x100006CDC, symSize: 0xB4 }
  - { offsetInCU: 0xC032, offset: 0xC032, size: 0x8, addend: 0x0, symName: __ZNSt3__111char_traitsIcE6lengthB8ue170006EPKc, symObjAddr: 0x3310, symBinAddr: 0x10000709C, symSize: 0x48 }
  - { offsetInCU: 0xC073, offset: 0xC073, size: 0x8, addend: 0x0, symName: __ZNKSt3__113basic_ostreamIcNS_11char_traitsIcEEE6sentrycvbB8ue170006Ev, symObjAddr: 0x3358, symBinAddr: 0x1000070E4, symSize: 0x1C }
  - { offsetInCU: 0xC098, offset: 0xC098, size: 0x8, addend: 0x0, symName: __ZNSt3__119ostreambuf_iteratorIcNS_11char_traitsIcEEEC1B8ue170006ERNS_13basic_ostreamIcS2_EE, symObjAddr: 0x35BC, symBinAddr: 0x100007348, symSize: 0x34 }
  - { offsetInCU: 0xC0CF, offset: 0xC0CF, size: 0x8, addend: 0x0, symName: __ZNKSt3__18ios_base5flagsB8ue170006Ev, symObjAddr: 0x35F0, symBinAddr: 0x10000737C, symSize: 0x18 }
  - { offsetInCU: 0xC0F5, offset: 0xC0F5, size: 0x8, addend: 0x0, symName: __ZNKSt3__19basic_iosIcNS_11char_traitsIcEEE4fillB8ue170006Ev, symObjAddr: 0x3608, symBinAddr: 0x100007394, symSize: 0x64 }
  - { offsetInCU: 0xC11C, offset: 0xC11C, size: 0x8, addend: 0x0, symName: __ZNKSt3__119ostreambuf_iteratorIcNS_11char_traitsIcEEE6failedB8ue170006Ev, symObjAddr: 0x366C, symBinAddr: 0x1000073F8, symSize: 0x24 }
  - { offsetInCU: 0xC141, offset: 0xC141, size: 0x8, addend: 0x0, symName: __ZNSt3__19basic_iosIcNS_11char_traitsIcEEE8setstateB8ue170006Ej, symObjAddr: 0x3690, symBinAddr: 0x10000741C, symSize: 0x2C }
  - { offsetInCU: 0xC175, offset: 0xC175, size: 0x8, addend: 0x0, symName: __ZNKSt3__18ios_base5widthB8ue170006Ev, symObjAddr: 0x36BC, symBinAddr: 0x100007448, symSize: 0x18 }
  - { offsetInCU: 0xC19C, offset: 0xC19C, size: 0x8, addend: 0x0, symName: __ZNSt3__115basic_streambufIcNS_11char_traitsIcEEE5sputnB8ue170006EPKcl, symObjAddr: 0x36D4, symBinAddr: 0x100007460, symSize: 0x3C }
  - { offsetInCU: 0xC1DD, offset: 0xC1DD, size: 0x8, addend: 0x0, symName: __ZNSt3__112basic_stringIcNS_11char_traitsIcEENS_9allocatorIcEEEC1B8ue170006Emc, symObjAddr: 0x3710, symBinAddr: 0x10000749C, symSize: 0x3C }
  - { offsetInCU: 0xC224, offset: 0xC224, size: 0x8, addend: 0x0, symName: __ZNKSt3__112basic_stringIcNS_11char_traitsIcEENS_9allocatorIcEEE4dataB8ue170006Ev, symObjAddr: 0x374C, symBinAddr: 0x1000074D8, symSize: 0x28 }
  - { offsetInCU: 0xC249, offset: 0xC249, size: 0x8, addend: 0x0, symName: __ZNSt3__18ios_base5widthB8ue170006El, symObjAddr: 0x3774, symBinAddr: 0x100007500, symSize: 0x2C }
  - { offsetInCU: 0xC28E, offset: 0xC28E, size: 0x8, addend: 0x0, symName: __ZNSt3__112basic_stringIcNS_11char_traitsIcEENS_9allocatorIcEEEC2B8ue170006Emc, symObjAddr: 0x37A0, symBinAddr: 0x10000752C, symSize: 0x4C }
  - { offsetInCU: 0xC2D5, offset: 0xC2D5, size: 0x8, addend: 0x0, symName: __ZNSt3__117__compressed_pairINS_12basic_stringIcNS_11char_traitsIcEENS_9allocatorIcEEE5__repES5_EC1B8ue170006INS_18__default_init_tagESA_EEOT_OT0_, symObjAddr: 0x37EC, symBinAddr: 0x100007578, symSize: 0x3C }
  - { offsetInCU: 0xC32C, offset: 0xC32C, size: 0x8, addend: 0x0, symName: __ZNSt3__117__compressed_pairINS_12basic_stringIcNS_11char_traitsIcEENS_9allocatorIcEEE5__repES5_EC2B8ue170006INS_18__default_init_tagESA_EEOT_OT0_, symObjAddr: 0x3828, symBinAddr: 0x1000075B4, symSize: 0x3C }
  - { offsetInCU: 0xC383, offset: 0xC383, size: 0x8, addend: 0x0, symName: __ZNSt3__122__compressed_pair_elemINS_12basic_stringIcNS_11char_traitsIcEENS_9allocatorIcEEE5__repELi0ELb0EEC2B8ue170006ENS_18__default_init_tagE, symObjAddr: 0x3864, symBinAddr: 0x1000075F0, symSize: 0x14 }
  - { offsetInCU: 0xC3B7, offset: 0xC3B7, size: 0x8, addend: 0x0, symName: __ZNSt3__122__compressed_pair_elemINS_9allocatorIcEELi1ELb1EEC2B8ue170006ENS_18__default_init_tagE, symObjAddr: 0x3878, symBinAddr: 0x100007604, symSize: 0x2C }
  - { offsetInCU: 0xC3EB, offset: 0xC3EB, size: 0x8, addend: 0x0, symName: __ZNSt3__19allocatorIcEC2B8ue170006Ev, symObjAddr: 0x38A4, symBinAddr: 0x100007630, symSize: 0x2C }
  - { offsetInCU: 0xC414, offset: 0xC414, size: 0x8, addend: 0x0, symName: __ZNSt3__116__non_trivial_ifILb1ENS_9allocatorIcEEEC2B8ue170006Ev, symObjAddr: 0x38D0, symBinAddr: 0x10000765C, symSize: 0x14 }
  - { offsetInCU: 0xC43D, offset: 0xC43D, size: 0x8, addend: 0x0, symName: __ZNKSt3__112basic_stringIcNS_11char_traitsIcEENS_9allocatorIcEEE13__get_pointerB8ue170006Ev, symObjAddr: 0x38F8, symBinAddr: 0x100007684, symSize: 0x54 }
  - { offsetInCU: 0xC462, offset: 0xC462, size: 0x8, addend: 0x0, symName: __ZNKSt3__112basic_stringIcNS_11char_traitsIcEENS_9allocatorIcEEE9__is_longB8ue170006Ev, symObjAddr: 0x394C, symBinAddr: 0x1000076D8, symSize: 0x74 }
  - { offsetInCU: 0xC487, offset: 0xC487, size: 0x8, addend: 0x0, symName: __ZNKSt3__112basic_stringIcNS_11char_traitsIcEENS_9allocatorIcEEE18__get_long_pointerB8ue170006Ev, symObjAddr: 0x39C0, symBinAddr: 0x10000774C, symSize: 0x28 }
  - { offsetInCU: 0xC4AC, offset: 0xC4AC, size: 0x8, addend: 0x0, symName: __ZNKSt3__112basic_stringIcNS_11char_traitsIcEENS_9allocatorIcEEE19__get_short_pointerB8ue170006Ev, symObjAddr: 0x39E8, symBinAddr: 0x100007774, symSize: 0x28 }
  - { offsetInCU: 0xC4D1, offset: 0xC4D1, size: 0x8, addend: 0x0, symName: __ZNKSt3__117__compressed_pairINS_12basic_stringIcNS_11char_traitsIcEENS_9allocatorIcEEE5__repES5_E5firstB8ue170006Ev, symObjAddr: 0x3A10, symBinAddr: 0x10000779C, symSize: 0x24 }
  - { offsetInCU: 0xC4F6, offset: 0xC4F6, size: 0x8, addend: 0x0, symName: __ZNKSt3__122__compressed_pair_elemINS_12basic_stringIcNS_11char_traitsIcEENS_9allocatorIcEEE5__repELi0ELb0EE5__getB8ue170006Ev, symObjAddr: 0x3A34, symBinAddr: 0x1000077C0, symSize: 0x14 }
  - { offsetInCU: 0xC51B, offset: 0xC51B, size: 0x8, addend: 0x0, symName: __ZNSt3__114pointer_traitsIPKcE10pointer_toB8ue170006ERS1_, symObjAddr: 0x3A48, symBinAddr: 0x1000077D4, symSize: 0x14 }
  - { offsetInCU: 0xC53E, offset: 0xC53E, size: 0x8, addend: 0x0, symName: __ZNSt3__119ostreambuf_iteratorIcNS_11char_traitsIcEEEC2B8ue170006ERNS_13basic_ostreamIcS2_EE, symObjAddr: 0x3A5C, symBinAddr: 0x1000077E8, symSize: 0x68 }
  - { offsetInCU: 0xC574, offset: 0xC574, size: 0x8, addend: 0x0, symName: __ZNKSt3__19basic_iosIcNS_11char_traitsIcEEE5rdbufB8ue170006Ev, symObjAddr: 0x3AC4, symBinAddr: 0x100007850, symSize: 0x24 }
  - { offsetInCU: 0xC59B, offset: 0xC59B, size: 0x8, addend: 0x0, symName: __ZNKSt3__18ios_base5rdbufB8ue170006Ev, symObjAddr: 0x3AE8, symBinAddr: 0x100007874, symSize: 0x18 }
  - { offsetInCU: 0xC5C0, offset: 0xC5C0, size: 0x8, addend: 0x0, symName: __ZNSt3__111char_traitsIcE11eq_int_typeB8ue170006Eii, symObjAddr: 0x3B00, symBinAddr: 0x10000788C, symSize: 0x28 }
  - { offsetInCU: 0xC5F3, offset: 0xC5F3, size: 0x8, addend: 0x0, symName: __ZNSt3__111char_traitsIcE3eofB8ue170006Ev, symObjAddr: 0x3B28, symBinAddr: 0x1000078B4, symSize: 0x8 }
  - { offsetInCU: 0xC606, offset: 0xC606, size: 0x8, addend: 0x0, symName: __ZNKSt3__19basic_iosIcNS_11char_traitsIcEEE5widenB8ue170006Ec, symObjAddr: 0x3B30, symBinAddr: 0x1000078BC, symSize: 0x8C }
  - { offsetInCU: 0xC673, offset: 0xC673, size: 0x8, addend: 0x0, symName: __ZNKSt3__15ctypeIcE5widenB8ue170006Ec, symObjAddr: 0x3BE8, symBinAddr: 0x100007974, symSize: 0x38 }
  - { offsetInCU: 0xC6A6, offset: 0xC6A6, size: 0x8, addend: 0x0, symName: __ZNSt3__18ios_base8setstateB8ue170006Ej, symObjAddr: 0x3C20, symBinAddr: 0x1000079AC, symSize: 0x34 }
...
