---
triple:          'arm64-apple-darwin'
binary-path:     '/Users/lovebabbar/Desktop/C++STL Codes/output/customStudentCmp'
relocations:
  - { offsetInCU: 0x4BEA, offset: 0x4BEA, size: 0x8, addend: 0x0, symName: __ZNSt3__111__sift_downB8ue170006INS_17_ClassicAlgPolicyER10comparatorP7StudentEEvT1_OT0_NS_15iterator_traitsIS6_E15difference_typeES6_, symObjAddr: 0x31F4, symBinAddr: 0x1000061CC, symSize: 0x4F4 }
  - { offsetInCU: 0x4C98, offset: 0x4C98, size: 0x8, addend: 0x0, symName: __ZNSt3__117__floyd_sift_downB8ue170006INS_17_ClassicAlgPolicyER10comparatorP7StudentEET1_S6_OT0_NS_15iterator_traitsIS6_E15difference_typeE, symObjAddr: 0x3F58, symBinAddr: 0x100006F30, symSize: 0x1EC }
  - { offsetInCU: 0x4D30, offset: 0x4D30, size: 0x8, addend: 0x0, symName: __ZNSt3__111__introsortINS_17_ClassicAlgPolicyER10comparatorP7StudentLb0EEEvT1_S6_T0_NS_15iterator_traitsIS6_E15difference_typeEb, symObjAddr: 0x4494, symBinAddr: 0x10000746C, symSize: 0x62C }
  - { offsetInCU: 0x4E58, offset: 0x4E58, size: 0x8, addend: 0x0, symName: __ZNSt3__126__insertion_sort_unguardedB8ue170006INS_17_ClassicAlgPolicyER10comparatorP7StudentEEvT1_S6_T0_, symObjAddr: 0x4ECC, symBinAddr: 0x100007EA4, symSize: 0x240 }
  - { offsetInCU: 0x4F32, offset: 0x4F32, size: 0x8, addend: 0x0, symName: __ZNSt3__131__partition_with_equals_on_leftB8ue170006INS_17_ClassicAlgPolicyEP7StudentR10comparatorEET0_S6_S6_T1_, symObjAddr: 0x5520, symBinAddr: 0x1000084F8, symSize: 0x564 }
  - { offsetInCU: 0x4FEF, offset: 0x4FEF, size: 0x8, addend: 0x0, symName: __ZNSt3__118__bitset_partitionB8ue170006INS_17_ClassicAlgPolicyEP7StudentR10comparatorEENS_4pairIT0_bEES7_S7_T1_, symObjAddr: 0x5A84, symBinAddr: 0x100008A5C, symSize: 0x5B4 }
  - { offsetInCU: 0x50ED, offset: 0x50ED, size: 0x8, addend: 0x0, symName: __ZNSt3__124__swap_bitmap_pos_withinB8ue170006INS_17_ClassicAlgPolicyEP7StudentEEvRT0_S5_RyS6_, symObjAddr: 0x75E0, symBinAddr: 0x10000A5B8, symSize: 0x1E0 }
  - { offsetInCU: 0x51BA, offset: 0x51BA, size: 0x8, addend: 0x0, symName: __ZNSt3__132__partition_with_equals_on_rightB8ue170006INS_17_ClassicAlgPolicyEP7StudentR10comparatorEENS_4pairIT0_bEES7_S7_T1_, symObjAddr: 0x6038, symBinAddr: 0x100009010, symSize: 0x510 }
  - { offsetInCU: 0x5288, offset: 0x5288, size: 0x8, addend: 0x0, symName: __ZNSt3__127__insertion_sort_incompleteB8ue170006INS_17_ClassicAlgPolicyER10comparatorP7StudentEEbT1_S6_T0_, symObjAddr: 0x6548, symBinAddr: 0x100009520, symSize: 0x518 }
  - { offsetInCU: 0x537B, offset: 0x537B, size: 0x8, addend: 0x0, symName: __ZNSt3__124__put_character_sequenceB8ue170006IcNS_11char_traitsIcEEEERNS_13basic_ostreamIT_T0_EES7_PKS4_m, symObjAddr: 0x7950, symBinAddr: 0x10000A928, symSize: 0x1F4 }
  - { offsetInCU: 0x6ED4, offset: 0x6ED4, size: 0x8, addend: 0x0, symName: __ZNSt3__14sortB8ue170006INS_11__wrap_iterIP7StudentEE10comparatorEEvT_S6_T0_, symObjAddr: 0x460, symBinAddr: 0x100003438, symSize: 0x40 }
  - { offsetInCU: 0x6F2E, offset: 0x6F2E, size: 0x8, addend: 0x0, symName: __ZNSt3__1neB8ue170006IP7StudentEEbRKNS_11__wrap_iterIT_EES7_, symObjAddr: 0x500, symBinAddr: 0x1000034D8, symSize: 0x34 }
  - { offsetInCU: 0x6F71, offset: 0x6F71, size: 0x8, addend: 0x0, symName: __ZNSt3__1lsB8ue170006IcNS_11char_traitsIcEENS_9allocatorIcEEEERNS_13basic_ostreamIT_T0_EES9_RKNS_12basic_stringIS6_S7_T1_EE, symObjAddr: 0x580, symBinAddr: 0x100003558, symSize: 0x4C }
  - { offsetInCU: 0x6FC9, offset: 0x6FC9, size: 0x8, addend: 0x0, symName: __ZNSt3__1lsB8ue170006INS_11char_traitsIcEEEERNS_13basic_ostreamIcT_EES6_PKc, symObjAddr: 0x5CC, symBinAddr: 0x1000035A4, symSize: 0x48 }
  - { offsetInCU: 0x700F, offset: 0x700F, size: 0x8, addend: 0x0, symName: __ZNSt3__14endlB8ue170006IcNS_11char_traitsIcEEEERNS_13basic_ostreamIT_T0_EES7_, symObjAddr: 0x640, symBinAddr: 0x100003618, symSize: 0x58 }
  - { offsetInCU: 0x704F, offset: 0x704F, size: 0x8, addend: 0x0, symName: __ZNSt3__130__libcpp_is_constant_evaluatedB8ue170006Ev, symObjAddr: 0x9A0, symBinAddr: 0x100003978, symSize: 0xC }
  - { offsetInCU: 0x706C, offset: 0x706C, size: 0x8, addend: 0x0, symName: __ZNSt3__117__libcpp_allocateB8ue170006Emm, symObjAddr: 0xC98, symBinAddr: 0x100003C70, symSize: 0x28 }
  - { offsetInCU: 0x70A9, offset: 0x70A9, size: 0x8, addend: 0x0, symName: __ZNSt3__121__libcpp_operator_newB8ue170006IJmEEEPvDpT_, symObjAddr: 0xCD4, symBinAddr: 0x100003CAC, symSize: 0x24 }
  - { offsetInCU: 0x70E2, offset: 0x70E2, size: 0x8, addend: 0x0, symName: __ZNSt3__112__to_addressB8ue170006I7StudentEEPT_S3_, symObjAddr: 0x1258, symBinAddr: 0x100004230, symSize: 0x14 }
  - { offsetInCU: 0x7117, offset: 0x7117, size: 0x8, addend: 0x0, symName: __ZNSt3__119__libcpp_deallocateB8ue170006EPvmm, symObjAddr: 0x1374, symBinAddr: 0x10000434C, symSize: 0x30 }
  - { offsetInCU: 0x715F, offset: 0x715F, size: 0x8, addend: 0x0, symName: __ZNSt3__127__do_deallocate_handle_sizeB8ue170006IJEEEvPvmDpT_, symObjAddr: 0x13A4, symBinAddr: 0x10000437C, symSize: 0x28 }
  - { offsetInCU: 0x719D, offset: 0x719D, size: 0x8, addend: 0x0, symName: __ZNSt3__124__libcpp_operator_deleteB8ue170006IJPvEEEvDpT_, symObjAddr: 0x13CC, symBinAddr: 0x1000043A4, symSize: 0x24 }
  - { offsetInCU: 0x71D2, offset: 0x71D2, size: 0x8, addend: 0x0, symName: __ZNSt3__118__constexpr_strlenB8ue170006EPKc, symObjAddr: 0x1528, symBinAddr: 0x100004500, symSize: 0x24 }
  - { offsetInCU: 0x71FE, offset: 0x71FE, size: 0x8, addend: 0x0, symName: __ZNSt3__13maxB8ue170006ImEERKT_S3_S3_, symObjAddr: 0x1B18, symBinAddr: 0x100004AF0, symSize: 0x2C }
  - { offsetInCU: 0x7241, offset: 0x7241, size: 0x8, addend: 0x0, symName: __ZNSt3__13minB8ue170006ImEERKT_S3_S3_, symObjAddr: 0x1B44, symBinAddr: 0x100004B1C, symSize: 0x2C }
  - { offsetInCU: 0x7485, offset: 0x7485, size: 0x8, addend: 0x0, symName: __ZNSt3__13minB8ue170006ImNS_6__lessIvvEEEERKT_S5_S5_T0_, symObjAddr: 0x1BD0, symBinAddr: 0x100004BA8, symSize: 0x54 }
  - { offsetInCU: 0x7524, offset: 0x7524, size: 0x8, addend: 0x0, symName: __ZNSt3__120__throw_length_errorB8ue170006EPKc, symObjAddr: 0x1CAC, symBinAddr: 0x100004C84, symSize: 0x64 }
  - { offsetInCU: 0x754E, offset: 0x754E, size: 0x8, addend: 0x0, symName: __ZNSt3__13maxB8ue170006ImNS_6__lessIvvEEEERKT_S5_S5_T0_, symObjAddr: 0x1D90, symBinAddr: 0x100004D68, symSize: 0x54 }
  - { offsetInCU: 0x75A8, offset: 0x75A8, size: 0x8, addend: 0x0, symName: __ZNSt3__119__allocate_at_leastB8ue170006INS_9allocatorI7StudentEEEENS_19__allocation_resultINS_16allocator_traitsIT_E7pointerEEERS6_m, symObjAddr: 0x1EF4, symBinAddr: 0x100004ECC, symSize: 0x40 }
  - { offsetInCU: 0x75EB, offset: 0x75EB, size: 0x8, addend: 0x0, symName: __ZNSt3__142__uninitialized_allocator_move_if_noexceptB8ue170006INS_9allocatorI7StudentEENS_16reverse_iteratorIPS2_EES6_S6_EET2_RT_T0_T1_S7_, symObjAddr: 0x20D4, symBinAddr: 0x1000050AC, symSize: 0x134 }
  - { offsetInCU: 0x768B, offset: 0x768B, size: 0x8, addend: 0x0, symName: __ZNSt3__14swapB8ue170006IP7StudentEEvRT_S4_, symObjAddr: 0x2254, symBinAddr: 0x10000522C, symSize: 0x3C }
  - { offsetInCU: 0x76DC, offset: 0x76DC, size: 0x8, addend: 0x0, symName: __ZNSt3__122__make_exception_guardB8ue170006INS_29_AllocatorDestroyRangeReverseINS_9allocatorI7StudentEENS_16reverse_iteratorIPS3_EEEEEENS_28__exception_guard_exceptionsIT_EESA_, symObjAddr: 0x233C, symBinAddr: 0x100005314, symSize: 0x4C }
  - { offsetInCU: 0x7712, offset: 0x7712, size: 0x8, addend: 0x0, symName: __ZNSt3__1neB8ue170006IP7StudentS2_EEbRKNS_16reverse_iteratorIT_EERKNS3_IT0_EE, symObjAddr: 0x23CC, symBinAddr: 0x1000053A4, symSize: 0x48 }
  - { offsetInCU: 0x775E, offset: 0x775E, size: 0x8, addend: 0x0, symName: __ZNSt3__112__to_addressB8ue170006INS_16reverse_iteratorIP7StudentEEvEEu7__decayIDTclsr19__to_address_helperIT_EE6__callclsr3stdE7declvalIRKS5_EEEEES7_, symObjAddr: 0x2448, symBinAddr: 0x100005420, symSize: 0x24 }
  - { offsetInCU: 0x77BD, offset: 0x77BD, size: 0x8, addend: 0x0, symName: __ZNSt3__119__allocator_destroyB8ue170006INS_9allocatorI7StudentEENS_16reverse_iteratorINS4_IPS2_EEEES7_EEvRT_T0_T1_, symObjAddr: 0x2734, symBinAddr: 0x10000570C, symSize: 0x70 }
  - { offsetInCU: 0x7822, offset: 0x7822, size: 0x8, addend: 0x0, symName: __ZNSt3__1neB8ue170006INS_16reverse_iteratorIP7StudentEES4_EEbRKNS1_IT_EERKNS1_IT0_EE, symObjAddr: 0x27E0, symBinAddr: 0x1000057B8, symSize: 0x60 }
  - { offsetInCU: 0x786E, offset: 0x786E, size: 0x8, addend: 0x0, symName: __ZNSt3__112__to_addressB8ue170006INS_16reverse_iteratorINS1_IP7StudentEEEEvEEu7__decayIDTclsr19__to_address_helperIT_EE6__callclsr3stdE7declvalIRKS6_EEEEES8_, symObjAddr: 0x2840, symBinAddr: 0x100005818, symSize: 0x24 }
  - { offsetInCU: 0x78CD, offset: 0x78CD, size: 0x8, addend: 0x0, symName: __ZNSt3__111__sort_implB8ue170006INS_17_ClassicAlgPolicyENS_11__wrap_iterIP7StudentEE10comparatorEEvT0_S7_RT1_, symObjAddr: 0x2C48, symBinAddr: 0x100005C20, symSize: 0x108 }
  - { offsetInCU: 0x7930, offset: 0x7930, size: 0x8, addend: 0x0, symName: __ZNSt3__123__debug_randomize_rangeB8ue170006INS_17_ClassicAlgPolicyENS_11__wrap_iterIP7StudentEES5_EEvT0_T1_, symObjAddr: 0x2D50, symBinAddr: 0x100005D28, symSize: 0x14 }
  - { offsetInCU: 0x7981, offset: 0x7981, size: 0x8, addend: 0x0, symName: __ZNSt3__114__partial_sortB8ue170006INS_17_ClassicAlgPolicyE10comparatorP7StudentS4_EET1_S5_S5_T2_RT0_, symObjAddr: 0x2D64, symBinAddr: 0x100005D3C, symSize: 0x94 }
  - { offsetInCU: 0x7A09, offset: 0x7A09, size: 0x8, addend: 0x0, symName: __ZNSt3__113__unwrap_iterB8ue170006INS_11__wrap_iterIP7StudentEENS_18__unwrap_iter_implIS4_Lb1EEELi0EEEDTclsrT0_8__unwrapclsr3stdE7declvalIT_EEEES8_, symObjAddr: 0x2DF8, symBinAddr: 0x100005DD0, symSize: 0x2C }
  - { offsetInCU: 0x7A4D, offset: 0x7A4D, size: 0x8, addend: 0x0, symName: __ZNSt3__115__sort_dispatchB8ue170006INS_17_ClassicAlgPolicyEP7Student10comparatorEEvT0_S5_RT1_, symObjAddr: 0x2E24, symBinAddr: 0x100005DFC, symSize: 0x64 }
  - { offsetInCU: 0x7ACB, offset: 0x7ACB, size: 0x8, addend: 0x0, symName: __ZNSt3__135__check_strict_weak_ordering_sortedB8ue170006IP7Student10comparatorEEvT_S4_RT0_, symObjAddr: 0x2E88, symBinAddr: 0x100005E60, symSize: 0x18 }
  - { offsetInCU: 0x7C0B, offset: 0x7C0B, size: 0x8, addend: 0x0, symName: __ZNSt3__123__debug_randomize_rangeB8ue170006INS_17_ClassicAlgPolicyEP7StudentS3_EEvT0_T1_, symObjAddr: 0x2EB8, symBinAddr: 0x100005E90, symSize: 0x14 }
  - { offsetInCU: 0x7C5C, offset: 0x7C5C, size: 0x8, addend: 0x0, symName: __ZNSt3__119__partial_sort_implB8ue170006INS_17_ClassicAlgPolicyER10comparatorP7StudentS5_EET1_S6_S6_T2_OT0_, symObjAddr: 0x2ECC, symBinAddr: 0x100005EA4, symSize: 0x19C }
  - { offsetInCU: 0x7CF2, offset: 0x7CF2, size: 0x8, addend: 0x0, symName: __ZNSt3__111__make_heapB8ue170006INS_17_ClassicAlgPolicyER10comparatorP7StudentEEvT1_S6_OT0_, symObjAddr: 0x3068, symBinAddr: 0x100006040, symSize: 0xB8 }
  - { offsetInCU: 0x7D94, offset: 0x7D94, size: 0x8, addend: 0x0, symName: __ZNSt3__111__sort_heapB8ue170006INS_17_ClassicAlgPolicyER10comparatorP7StudentEEvT1_S6_OT0_, symObjAddr: 0x36E8, symBinAddr: 0x1000066C0, symSize: 0xA8 }
  - { offsetInCU: 0x7E36, offset: 0x7E36, size: 0x8, addend: 0x0, symName: __ZNSt3__1ltB8ue170006IcNS_11char_traitsIcEENS_9allocatorIcEEEEbRKNS_12basic_stringIT_T0_T1_EESB_, symObjAddr: 0x3790, symBinAddr: 0x100006768, symSize: 0x38 }
  - { offsetInCU: 0x7E8E, offset: 0x7E8E, size: 0x8, addend: 0x0, symName: __ZNSt3__112__to_addressB8ue170006IKcEEPT_S3_, symObjAddr: 0x3BBC, symBinAddr: 0x100006B94, symSize: 0x14 }
  - { offsetInCU: 0x7EF6, offset: 0x7EF6, size: 0x8, addend: 0x0, symName: __ZNSt3__19iter_swapB8ue170006IP7StudentS2_EEvT_T0_, symObjAddr: 0x3CF0, symBinAddr: 0x100006CC8, symSize: 0x2C }
  - { offsetInCU: 0x7F3E, offset: 0x7F3E, size: 0x8, addend: 0x0, symName: __ZNSt3__14swapB8ue170006I7StudentEEvRT_S3_, symObjAddr: 0x3D1C, symBinAddr: 0x100006CF4, symSize: 0x7C }
  - { offsetInCU: 0x7FB3, offset: 0x7FB3, size: 0x8, addend: 0x0, symName: __ZNSt3__110__pop_heapB8ue170006INS_17_ClassicAlgPolicyE10comparatorP7StudentEEvT1_S5_RT0_NS_15iterator_traitsIS5_E15difference_typeE, symObjAddr: 0x3E0C, symBinAddr: 0x100006DE4, symSize: 0x14C }
  - { offsetInCU: 0x805B, offset: 0x805B, size: 0x8, addend: 0x0, symName: __ZNSt3__19__sift_upB8ue170006INS_17_ClassicAlgPolicyER10comparatorP7StudentEEvT1_S6_OT0_NS_15iterator_traitsIS6_E15difference_typeE, symObjAddr: 0x4144, symBinAddr: 0x10000711C, symSize: 0x23C }
  - { offsetInCU: 0x814F, offset: 0x814F, size: 0x8, addend: 0x0, symName: __ZNSt3__112__to_addressB8ue170006INS_11__wrap_iterIP7StudentEEvEEu7__decayIDTclsr19__to_address_helperIT_EE6__callclsr3stdE7declvalIRKS5_EEEEES7_, symObjAddr: 0x43A8, symBinAddr: 0x100007380, symSize: 0x24 }
  - { offsetInCU: 0x822A, offset: 0x822A, size: 0x8, addend: 0x0, symName: __ZNSt3__17__log2iB8ue170006IlEET_S1_, symObjAddr: 0x4440, symBinAddr: 0x100007418, symSize: 0x54 }
  - { offsetInCU: 0x8261, offset: 0x8261, size: 0x8, addend: 0x0, symName: __ZNSt3__112__libcpp_clzB8ue170006Em, symObjAddr: 0x4AD8, symBinAddr: 0x100007AB0, symSize: 0x1C }
  - { offsetInCU: 0x828D, offset: 0x828D, size: 0x8, addend: 0x0, symName: __ZNSt3__124__sort3_maybe_branchlessB8ue170006INS_17_ClassicAlgPolicyER10comparatorP7StudentEENS_9enable_ifIXntsr21__use_branchless_sortIT0_T1_EE5valueEvE4typeES8_S8_S8_S7_, symObjAddr: 0x4AF4, symBinAddr: 0x100007ACC, symSize: 0x3C }
  - { offsetInCU: 0x82FE, offset: 0x82FE, size: 0x8, addend: 0x0, symName: __ZNSt3__124__sort4_maybe_branchlessB8ue170006INS_17_ClassicAlgPolicyER10comparatorP7StudentEENS_9enable_ifIXntsr21__use_branchless_sortIT0_T1_EE5valueEvE4typeES8_S8_S8_S8_S7_, symObjAddr: 0x4B30, symBinAddr: 0x100007B08, symSize: 0x44 }
  - { offsetInCU: 0x837D, offset: 0x837D, size: 0x8, addend: 0x0, symName: __ZNSt3__124__sort5_maybe_branchlessB8ue170006INS_17_ClassicAlgPolicyER10comparatorP7StudentEENS_9enable_ifIXntsr21__use_branchless_sortIT0_T1_EE5valueEvE4typeES8_S8_S8_S8_S8_S7_, symObjAddr: 0x4B74, symBinAddr: 0x100007B4C, symSize: 0x4C }
  - { offsetInCU: 0x840A, offset: 0x840A, size: 0x8, addend: 0x0, symName: __ZNSt3__116__insertion_sortB8ue170006INS_17_ClassicAlgPolicyER10comparatorP7StudentEEvT1_S6_T0_, symObjAddr: 0x4BC0, symBinAddr: 0x100007B98, symSize: 0x30C }
  - { offsetInCU: 0x84BF, offset: 0x84BF, size: 0x8, addend: 0x0, symName: __ZNSt3__114__partial_sortB8ue170006INS_17_ClassicAlgPolicyER10comparatorP7StudentS5_EET1_S6_S6_T2_RT0_, symObjAddr: 0x510C, symBinAddr: 0x1000080E4, symSize: 0x94 }
  - { offsetInCU: 0x8547, offset: 0x8547, size: 0x8, addend: 0x0, symName: __ZNSt3__17__sort3B8ue170006INS_17_ClassicAlgPolicyER10comparatorP7StudentEEjT1_S6_S6_T0_, symObjAddr: 0x51A0, symBinAddr: 0x100008178, symSize: 0x34C }
  - { offsetInCU: 0x85C6, offset: 0x85C6, size: 0x8, addend: 0x0, symName: __ZNSt3__17__sort4B8ue170006INS_17_ClassicAlgPolicyER10comparatorP7StudentEEvT1_S6_S6_S6_T0_, symObjAddr: 0x6A78, symBinAddr: 0x100009A50, symSize: 0x1F8 }
  - { offsetInCU: 0x8641, offset: 0x8641, size: 0x8, addend: 0x0, symName: __ZNSt3__17__sort5B8ue170006INS_17_ClassicAlgPolicyER10comparatorP7StudentEEvT1_S6_S6_S6_S6_T0_, symObjAddr: 0x6C70, symBinAddr: 0x100009C48, symSize: 0x28C }
  - { offsetInCU: 0x86CA, offset: 0x86CA, size: 0x8, addend: 0x0, symName: __ZNSt3__122__populate_left_bitsetB8ue170006IR10comparatorP7StudentS3_EEvT0_T_RT1_Ry, symObjAddr: 0x6EFC, symBinAddr: 0x100009ED4, symSize: 0x114 }
  - { offsetInCU: 0x8775, offset: 0x8775, size: 0x8, addend: 0x0, symName: __ZNSt3__123__populate_right_bitsetB8ue170006IR10comparatorP7StudentS3_EEvT0_T_RT1_Ry, symObjAddr: 0x7010, symBinAddr: 0x100009FE8, symSize: 0x110 }
  - { offsetInCU: 0x8820, offset: 0x8820, size: 0x8, addend: 0x0, symName: __ZNSt3__117__swap_bitmap_posB8ue170006INS_17_ClassicAlgPolicyEP7StudentEEvT0_S4_RyS5_, symObjAddr: 0x7120, symBinAddr: 0x10000A0F8, symSize: 0x100 }
  - { offsetInCU: 0x88C1, offset: 0x88C1, size: 0x8, addend: 0x0, symName: __ZNSt3__133__bitset_partition_partial_blocksB8ue170006INS_17_ClassicAlgPolicyER10comparatorP7StudentS4_EEvRT1_S7_T0_RT2_RySB_, symObjAddr: 0x7220, symBinAddr: 0x10000A1F8, symSize: 0x3C0 }
  - { offsetInCU: 0x8A2A, offset: 0x8A2A, size: 0x8, addend: 0x0, symName: __ZNSt3__19make_pairB8ue170006IRP7StudentRbEENS_4pairINS_18__unwrap_ref_decayIT_E4typeENS6_IT0_E4typeEEEOS7_OSA_, symObjAddr: 0x77C0, symBinAddr: 0x10000A798, symSize: 0x38 }
  - { offsetInCU: 0x8A79, offset: 0x8A79, size: 0x8, addend: 0x0, symName: __ZNSt3__112__libcpp_ctzB8ue170006Ey, symObjAddr: 0x77F8, symBinAddr: 0x10000A7D0, symSize: 0x20 }
  - { offsetInCU: 0x8AA5, offset: 0x8AA5, size: 0x8, addend: 0x0, symName: __ZNSt3__113__libcpp_blsrB8ue170006Ey, symObjAddr: 0x7818, symBinAddr: 0x10000A7F0, symSize: 0x2C }
  - { offsetInCU: 0x8AD1, offset: 0x8AD1, size: 0x8, addend: 0x0, symName: __ZNSt3__112__libcpp_clzB8ue170006Ey, symObjAddr: 0x7878, symBinAddr: 0x10000A850, symSize: 0x1C }
  - { offsetInCU: 0x8BAA, offset: 0x8BAA, size: 0x8, addend: 0x0, symName: __ZNSt3__1eqB8ue170006IP7StudentEEbRKNS_11__wrap_iterIT_EES7_, symObjAddr: 0x7908, symBinAddr: 0x10000A8E0, symSize: 0x48 }
  - { offsetInCU: 0x8BED, offset: 0x8BED, size: 0x8, addend: 0x0, symName: __ZNSt3__116__pad_and_outputB8ue170006IcNS_11char_traitsIcEEEENS_19ostreambuf_iteratorIT_T0_EES6_PKS4_S8_S8_RNS_8ios_baseES4_, symObjAddr: 0x7B60, symBinAddr: 0x10000AB38, symSize: 0x248 }
  - { offsetInCU: 0x8CBC, offset: 0x8CBC, size: 0x8, addend: 0x0, symName: __ZNSt3__19use_facetB8ue170006INS_5ctypeIcEEEERKT_RKNS_6localeE, symObjAddr: 0x8110, symBinAddr: 0x10000B0E8, symSize: 0x2C }
  - { offsetInCU: 0x937A, offset: 0x937A, size: 0x8, addend: 0x0, symName: __ZSt28__throw_bad_array_new_lengthB8ue170006v, symObjAddr: 0xC64, symBinAddr: 0x100003C3C, symSize: 0x34 }
  - { offsetInCU: 0x989B, offset: 0x989B, size: 0x8, addend: 0x0, symName: __ZNSt3__16vectorI7StudentNS_9allocatorIS1_EEE26__swap_out_circular_bufferERNS_14__split_bufferIS1_RS3_EE, symObjAddr: 0x194C, symBinAddr: 0x100004924, symSize: 0x110 }
  - { offsetInCU: 0xBD58, offset: 0xBD58, size: 0x8, addend: 0x0, symName: _main, symObjAddr: 0x0, symBinAddr: 0x100002FD8, symSize: 0x320 }
  - { offsetInCU: 0xBDC5, offset: 0xBDC5, size: 0x8, addend: 0x0, symName: __ZNSt3__16vectorI7StudentNS_9allocatorIS1_EEEC1B8ue170006Ev, symObjAddr: 0x320, symBinAddr: 0x1000032F8, symSize: 0x2C }
  - { offsetInCU: 0xBDED, offset: 0xBDED, size: 0x8, addend: 0x0, symName: __ZNSt3__16vectorI7StudentNS_9allocatorIS1_EEE9push_backB8ue170006EOS1_, symObjAddr: 0x34C, symBinAddr: 0x100003324, symSize: 0x6C }
  - { offsetInCU: 0xBE28, offset: 0xBE28, size: 0x8, addend: 0x0, symName: __ZNSt3__112basic_stringIcNS_11char_traitsIcEENS_9allocatorIcEEEC1B8ue170006ILi0EEEPKc, symObjAddr: 0x3B8, symBinAddr: 0x100003390, symSize: 0x34 }
  - { offsetInCU: 0xBE66, offset: 0xBE66, size: 0x8, addend: 0x0, symName: __ZN7StudentC1EiNSt3__112basic_stringIcNS0_11char_traitsIcEENS0_9allocatorIcEEEE, symObjAddr: 0x3EC, symBinAddr: 0x1000033C4, symSize: 0x3C }
  - { offsetInCU: 0xBEAC, offset: 0xBEAC, size: 0x8, addend: 0x0, symName: __ZN7StudentD1Ev, symObjAddr: 0x428, symBinAddr: 0x100003400, symSize: 0x2C }
  - { offsetInCU: 0xBED6, offset: 0xBED6, size: 0x8, addend: 0x0, symName: __ZNSt3__16vectorI7StudentNS_9allocatorIS1_EEE5beginB8ue170006Ev, symObjAddr: 0x4A0, symBinAddr: 0x100003478, symSize: 0x30 }
  - { offsetInCU: 0xBEFC, offset: 0xBEFC, size: 0x8, addend: 0x0, symName: __ZNSt3__16vectorI7StudentNS_9allocatorIS1_EEE3endB8ue170006Ev, symObjAddr: 0x4D0, symBinAddr: 0x1000034A8, symSize: 0x30 }
  - { offsetInCU: 0xBF23, offset: 0xBF23, size: 0x8, addend: 0x0, symName: __ZNKSt3__111__wrap_iterIP7StudentEdeB8ue170006Ev, symObjAddr: 0x534, symBinAddr: 0x10000350C, symSize: 0x18 }
  - { offsetInCU: 0xBF48, offset: 0xBF48, size: 0x8, addend: 0x0, symName: __ZN7StudentC1ERKS_, symObjAddr: 0x54C, symBinAddr: 0x100003524, symSize: 0x34 }
  - { offsetInCU: 0xBF7C, offset: 0xBF7C, size: 0x8, addend: 0x0, symName: __ZNSt3__113basic_ostreamIcNS_11char_traitsIcEEElsB8ue170006EPFRS3_S4_E, symObjAddr: 0x614, symBinAddr: 0x1000035EC, symSize: 0x2C }
  - { offsetInCU: 0xBFAF, offset: 0xBFAF, size: 0x8, addend: 0x0, symName: __ZNSt3__111__wrap_iterIP7StudentEppB8ue170006Ev, symObjAddr: 0x698, symBinAddr: 0x100003670, symSize: 0x20 }
  - { offsetInCU: 0xBFD4, offset: 0xBFD4, size: 0x8, addend: 0x0, symName: __ZNSt3__16vectorI7StudentNS_9allocatorIS1_EEED1B8ue170006Ev, symObjAddr: 0x6B8, symBinAddr: 0x100003690, symSize: 0x2C }
  - { offsetInCU: 0xBFFD, offset: 0xBFFD, size: 0x8, addend: 0x0, symName: __ZN7StudentC2EiNSt3__112basic_stringIcNS0_11char_traitsIcEENS0_9allocatorIcEEEE, symObjAddr: 0x6E4, symBinAddr: 0x1000036BC, symSize: 0x88 }
  - { offsetInCU: 0xC043, offset: 0xC043, size: 0x8, addend: 0x0, symName: __ZNSt3__112basic_stringIcNS_11char_traitsIcEENS_9allocatorIcEEEC1B8ue170006Ev, symObjAddr: 0x76C, symBinAddr: 0x100003744, symSize: 0x2C }
  - { offsetInCU: 0xC06C, offset: 0xC06C, size: 0x8, addend: 0x0, symName: __ZNSt3__112basic_stringIcNS_11char_traitsIcEENS_9allocatorIcEEEC2B8ue170006Ev, symObjAddr: 0x798, symBinAddr: 0x100003770, symSize: 0x3C }
  - { offsetInCU: 0xC09A, offset: 0xC09A, size: 0x8, addend: 0x0, symName: __ZNSt3__117__compressed_pairINS_12basic_stringIcNS_11char_traitsIcEENS_9allocatorIcEEE5__repES5_EC1B8ue170006INS_18__default_init_tagESA_EEOT_OT0_, symObjAddr: 0x7D4, symBinAddr: 0x1000037AC, symSize: 0x3C }
  - { offsetInCU: 0xC0F1, offset: 0xC0F1, size: 0x8, addend: 0x0, symName: __ZNSt3__112basic_stringIcNS_11char_traitsIcEENS_9allocatorIcEEE14__default_initB8ue170006Ev, symObjAddr: 0x810, symBinAddr: 0x1000037E8, symSize: 0xB0 }
  - { offsetInCU: 0xC142, offset: 0xC142, size: 0x8, addend: 0x0, symName: __ZNSt3__117__compressed_pairINS_12basic_stringIcNS_11char_traitsIcEENS_9allocatorIcEEE5__repES5_EC2B8ue170006INS_18__default_init_tagESA_EEOT_OT0_, symObjAddr: 0x8C0, symBinAddr: 0x100003898, symSize: 0x3C }
  - { offsetInCU: 0xC199, offset: 0xC199, size: 0x8, addend: 0x0, symName: __ZNSt3__122__compressed_pair_elemINS_12basic_stringIcNS_11char_traitsIcEENS_9allocatorIcEEE5__repELi0ELb0EEC2B8ue170006ENS_18__default_init_tagE, symObjAddr: 0x8FC, symBinAddr: 0x1000038D4, symSize: 0x14 }
  - { offsetInCU: 0xC1CD, offset: 0xC1CD, size: 0x8, addend: 0x0, symName: __ZNSt3__122__compressed_pair_elemINS_9allocatorIcEELi1ELb1EEC2B8ue170006ENS_18__default_init_tagE, symObjAddr: 0x910, symBinAddr: 0x1000038E8, symSize: 0x2C }
  - { offsetInCU: 0xC201, offset: 0xC201, size: 0x8, addend: 0x0, symName: __ZNSt3__19allocatorIcEC2B8ue170006Ev, symObjAddr: 0x93C, symBinAddr: 0x100003914, symSize: 0x2C }
  - { offsetInCU: 0xC22A, offset: 0xC22A, size: 0x8, addend: 0x0, symName: __ZNSt3__116__non_trivial_ifILb1ENS_9allocatorIcEEEC2B8ue170006Ev, symObjAddr: 0x968, symBinAddr: 0x100003940, symSize: 0x14 }
  - { offsetInCU: 0xC253, offset: 0xC253, size: 0x8, addend: 0x0, symName: __ZNSt3__117__compressed_pairINS_12basic_stringIcNS_11char_traitsIcEENS_9allocatorIcEEE5__repES5_E5firstB8ue170006Ev, symObjAddr: 0x97C, symBinAddr: 0x100003954, symSize: 0x24 }
  - { offsetInCU: 0xC278, offset: 0xC278, size: 0x8, addend: 0x0, symName: __ZNSt3__112basic_stringIcNS_11char_traitsIcEENS_9allocatorIcEEE11__recommendB8ue170006Em, symObjAddr: 0x9AC, symBinAddr: 0x100003984, symSize: 0x9C }
  - { offsetInCU: 0xC2AB, offset: 0xC2AB, size: 0x8, addend: 0x0, symName: __ZNSt3__116allocator_traitsINS_9allocatorIcEEE8allocateB8ue170006ERS2_m, symObjAddr: 0xA48, symBinAddr: 0x100003A20, symSize: 0x2C }
  - { offsetInCU: 0xC2DE, offset: 0xC2DE, size: 0x8, addend: 0x0, symName: __ZNSt3__112basic_stringIcNS_11char_traitsIcEENS_9allocatorIcEEE7__allocB8ue170006Ev, symObjAddr: 0xA74, symBinAddr: 0x100003A4C, symSize: 0x24 }
  - { offsetInCU: 0xC303, offset: 0xC303, size: 0x8, addend: 0x0, symName: __ZNSt3__112basic_stringIcNS_11char_traitsIcEENS_9allocatorIcEEE16__begin_lifetimeB8ue170006EPcm, symObjAddr: 0xA98, symBinAddr: 0x100003A70, symSize: 0x14 }
  - { offsetInCU: 0xC336, offset: 0xC336, size: 0x8, addend: 0x0, symName: __ZNSt3__112basic_stringIcNS_11char_traitsIcEENS_9allocatorIcEEE18__set_long_pointerB8ue170006EPc, symObjAddr: 0xAAC, symBinAddr: 0x100003A84, symSize: 0x38 }
  - { offsetInCU: 0xC36A, offset: 0xC36A, size: 0x8, addend: 0x0, symName: __ZNSt3__112basic_stringIcNS_11char_traitsIcEENS_9allocatorIcEEE14__set_long_capB8ue170006Em, symObjAddr: 0xAE4, symBinAddr: 0x100003ABC, symSize: 0x70 }
  - { offsetInCU: 0xC39E, offset: 0xC39E, size: 0x8, addend: 0x0, symName: __ZNSt3__112basic_stringIcNS_11char_traitsIcEENS_9allocatorIcEEE15__set_long_sizeB8ue170006Em, symObjAddr: 0xB54, symBinAddr: 0x100003B2C, symSize: 0x38 }
  - { offsetInCU: 0xC3D2, offset: 0xC3D2, size: 0x8, addend: 0x0, symName: __ZNSt3__122__compressed_pair_elemINS_12basic_stringIcNS_11char_traitsIcEENS_9allocatorIcEEE5__repELi0ELb0EE5__getB8ue170006Ev, symObjAddr: 0xB8C, symBinAddr: 0x100003B64, symSize: 0x14 }
  - { offsetInCU: 0xC3F7, offset: 0xC3F7, size: 0x8, addend: 0x0, symName: __ZNSt3__112basic_stringIcNS_11char_traitsIcEENS_9allocatorIcEEE10__align_itB8ue170006ILm16EEEmm, symObjAddr: 0xBA0, symBinAddr: 0x100003B78, symSize: 0x1C }
  - { offsetInCU: 0xC425, offset: 0xC425, size: 0x8, addend: 0x0, symName: __ZNSt3__19allocatorIcE8allocateB8ue170006Em, symObjAddr: 0xBBC, symBinAddr: 0x100003B94, symSize: 0x84 }
  - { offsetInCU: 0xC462, offset: 0xC462, size: 0x8, addend: 0x0, symName: __ZNSt3__116allocator_traitsINS_9allocatorIcEEE8max_sizeB8ue170006IS2_vEEmRKS2_, symObjAddr: 0xC40, symBinAddr: 0x100003C18, symSize: 0x24 }
  - { offsetInCU: 0xC490, offset: 0xC490, size: 0x8, addend: 0x0, symName: __ZNKSt3__19allocatorIcE8max_sizeB8ue170006Ev, symObjAddr: 0xCC0, symBinAddr: 0x100003C98, symSize: 0x14 }
  - { offsetInCU: 0xC4B5, offset: 0xC4B5, size: 0x8, addend: 0x0, symName: __ZNSt3__117__compressed_pairINS_12basic_stringIcNS_11char_traitsIcEENS_9allocatorIcEEE5__repES5_E6secondB8ue170006Ev, symObjAddr: 0xCF8, symBinAddr: 0x100003CD0, symSize: 0x24 }
  - { offsetInCU: 0xC4DA, offset: 0xC4DA, size: 0x8, addend: 0x0, symName: __ZNSt3__122__compressed_pair_elemINS_9allocatorIcEELi1ELb1EE5__getB8ue170006Ev, symObjAddr: 0xD1C, symBinAddr: 0x100003CF4, symSize: 0x14 }
  - { offsetInCU: 0xC4FF, offset: 0xC4FF, size: 0x8, addend: 0x0, symName: __ZN7StudentD2Ev, symObjAddr: 0xD30, symBinAddr: 0x100003D08, symSize: 0x30 }
  - { offsetInCU: 0xC52A, offset: 0xC52A, size: 0x8, addend: 0x0, symName: __ZN7StudentC2ERKS_, symObjAddr: 0xD60, symBinAddr: 0x100003D38, symSize: 0x48 }
  - { offsetInCU: 0xC55E, offset: 0xC55E, size: 0x8, addend: 0x0, symName: __ZNSt3__16vectorI7StudentNS_9allocatorIS1_EEEC2B8ue170006Ev, symObjAddr: 0xDA8, symBinAddr: 0x100003D80, symSize: 0x44 }
  - { offsetInCU: 0xC58C, offset: 0xC58C, size: 0x8, addend: 0x0, symName: __ZNSt3__117__compressed_pairIP7StudentNS_9allocatorIS1_EEEC1B8ue170006IDnNS_18__default_init_tagEEEOT_OT0_, symObjAddr: 0xDEC, symBinAddr: 0x100003DC4, symSize: 0x3C }
  - { offsetInCU: 0xC5E3, offset: 0xC5E3, size: 0x8, addend: 0x0, symName: __ZNSt3__117__compressed_pairIP7StudentNS_9allocatorIS1_EEEC2B8ue170006IDnNS_18__default_init_tagEEEOT_OT0_, symObjAddr: 0xE28, symBinAddr: 0x100003E00, symSize: 0x40 }
  - { offsetInCU: 0xC63A, offset: 0xC63A, size: 0x8, addend: 0x0, symName: __ZNSt3__122__compressed_pair_elemIP7StudentLi0ELb0EEC2B8ue170006IDnvEEOT_, symObjAddr: 0xE68, symBinAddr: 0x100003E40, symSize: 0x1C }
  - { offsetInCU: 0xC67B, offset: 0xC67B, size: 0x8, addend: 0x0, symName: __ZNSt3__122__compressed_pair_elemINS_9allocatorI7StudentEELi1ELb1EEC2B8ue170006ENS_18__default_init_tagE, symObjAddr: 0xE84, symBinAddr: 0x100003E5C, symSize: 0x2C }
  - { offsetInCU: 0xC6AF, offset: 0xC6AF, size: 0x8, addend: 0x0, symName: __ZNSt3__19allocatorI7StudentEC2B8ue170006Ev, symObjAddr: 0xEB0, symBinAddr: 0x100003E88, symSize: 0x2C }
  - { offsetInCU: 0xC6D8, offset: 0xC6D8, size: 0x8, addend: 0x0, symName: __ZNSt3__116__non_trivial_ifILb1ENS_9allocatorI7StudentEEEC2B8ue170006Ev, symObjAddr: 0xEDC, symBinAddr: 0x100003EB4, symSize: 0x14 }
  - { offsetInCU: 0xC701, offset: 0xC701, size: 0x8, addend: 0x0, symName: __ZNSt3__16vectorI7StudentNS_9allocatorIS1_EEED2B8ue170006Ev, symObjAddr: 0xEF0, symBinAddr: 0x100003EC8, symSize: 0x3C }
  - { offsetInCU: 0xC72A, offset: 0xC72A, size: 0x8, addend: 0x0, symName: __ZNSt3__16vectorI7StudentNS_9allocatorIS1_EEE16__destroy_vectorC1B8ue170006ERS4_, symObjAddr: 0xF2C, symBinAddr: 0x100003F04, symSize: 0x34 }
  - { offsetInCU: 0xC762, offset: 0xC762, size: 0x8, addend: 0x0, symName: __ZNSt3__16vectorI7StudentNS_9allocatorIS1_EEE16__destroy_vectorclB8ue170006Ev, symObjAddr: 0xF60, symBinAddr: 0x100003F38, symSize: 0x90 }
  - { offsetInCU: 0xC787, offset: 0xC787, size: 0x8, addend: 0x0, symName: __ZNSt3__16vectorI7StudentNS_9allocatorIS1_EEE16__destroy_vectorC2B8ue170006ERS4_, symObjAddr: 0xFF0, symBinAddr: 0x100003FC8, symSize: 0x20 }
  - { offsetInCU: 0xC7BF, offset: 0xC7BF, size: 0x8, addend: 0x0, symName: __ZNSt3__16vectorI7StudentNS_9allocatorIS1_EEE7__clearB8ue170006Ev, symObjAddr: 0x1010, symBinAddr: 0x100003FE8, symSize: 0x28 }
  - { offsetInCU: 0xC7E4, offset: 0xC7E4, size: 0x8, addend: 0x0, symName: __ZNKSt3__16vectorI7StudentNS_9allocatorIS1_EEE17__annotate_deleteB8ue170006Ev, symObjAddr: 0x1038, symBinAddr: 0x100004010, symSize: 0xB8 }
  - { offsetInCU: 0xC809, offset: 0xC809, size: 0x8, addend: 0x0, symName: __ZNSt3__116allocator_traitsINS_9allocatorI7StudentEEE10deallocateB8ue170006ERS3_PS2_m, symObjAddr: 0x10F0, symBinAddr: 0x1000040C8, symSize: 0x34 }
  - { offsetInCU: 0xC84B, offset: 0xC84B, size: 0x8, addend: 0x0, symName: __ZNSt3__16vectorI7StudentNS_9allocatorIS1_EEE7__allocB8ue170006Ev, symObjAddr: 0x1124, symBinAddr: 0x1000040FC, symSize: 0x28 }
  - { offsetInCU: 0xC870, offset: 0xC870, size: 0x8, addend: 0x0, symName: __ZNKSt3__16vectorI7StudentNS_9allocatorIS1_EEE8capacityB8ue170006Ev, symObjAddr: 0x114C, symBinAddr: 0x100004124, symSize: 0x40 }
  - { offsetInCU: 0xC895, offset: 0xC895, size: 0x8, addend: 0x0, symName: __ZNSt3__16vectorI7StudentNS_9allocatorIS1_EEE22__base_destruct_at_endB8ue170006EPS1_, symObjAddr: 0x118C, symBinAddr: 0x100004164, symSize: 0xA0 }
  - { offsetInCU: 0xC8D8, offset: 0xC8D8, size: 0x8, addend: 0x0, symName: __ZNSt3__116allocator_traitsINS_9allocatorI7StudentEEE7destroyB8ue170006IS2_vEEvRS3_PT_, symObjAddr: 0x122C, symBinAddr: 0x100004204, symSize: 0x2C }
  - { offsetInCU: 0xC915, offset: 0xC915, size: 0x8, addend: 0x0, symName: __ZNSt3__19allocatorI7StudentE7destroyB8ue170006EPS1_, symObjAddr: 0x126C, symBinAddr: 0x100004244, symSize: 0x28 }
  - { offsetInCU: 0xC948, offset: 0xC948, size: 0x8, addend: 0x0, symName: __ZNKSt3__16vectorI7StudentNS_9allocatorIS1_EEE31__annotate_contiguous_containerB8ue170006EPKvS6_S6_S6_, symObjAddr: 0x1294, symBinAddr: 0x10000426C, symSize: 0x20 }
  - { offsetInCU: 0xC99D, offset: 0xC99D, size: 0x8, addend: 0x0, symName: __ZNKSt3__16vectorI7StudentNS_9allocatorIS1_EEE4dataB8ue170006Ev, symObjAddr: 0x12B4, symBinAddr: 0x10000428C, symSize: 0x28 }
  - { offsetInCU: 0xC9C2, offset: 0xC9C2, size: 0x8, addend: 0x0, symName: __ZNKSt3__16vectorI7StudentNS_9allocatorIS1_EEE4sizeB8ue170006Ev, symObjAddr: 0x12DC, symBinAddr: 0x1000042B4, symSize: 0x28 }
  - { offsetInCU: 0xC9E7, offset: 0xC9E7, size: 0x8, addend: 0x0, symName: __ZNSt3__19allocatorI7StudentE10deallocateB8ue170006EPS1_m, symObjAddr: 0x1304, symBinAddr: 0x1000042DC, symSize: 0x70 }
  - { offsetInCU: 0xCA28, offset: 0xCA28, size: 0x8, addend: 0x0, symName: __ZNSt3__117__compressed_pairIP7StudentNS_9allocatorIS1_EEE6secondB8ue170006Ev, symObjAddr: 0x13F0, symBinAddr: 0x1000043C8, symSize: 0x24 }
  - { offsetInCU: 0xCA4D, offset: 0xCA4D, size: 0x8, addend: 0x0, symName: __ZNSt3__122__compressed_pair_elemINS_9allocatorI7StudentEELi1ELb1EE5__getB8ue170006Ev, symObjAddr: 0x1414, symBinAddr: 0x1000043EC, symSize: 0x14 }
  - { offsetInCU: 0xCA72, offset: 0xCA72, size: 0x8, addend: 0x0, symName: __ZNKSt3__16vectorI7StudentNS_9allocatorIS1_EEE9__end_capB8ue170006Ev, symObjAddr: 0x1428, symBinAddr: 0x100004400, symSize: 0x28 }
  - { offsetInCU: 0xCA97, offset: 0xCA97, size: 0x8, addend: 0x0, symName: __ZNKSt3__117__compressed_pairIP7StudentNS_9allocatorIS1_EEE5firstB8ue170006Ev, symObjAddr: 0x1450, symBinAddr: 0x100004428, symSize: 0x24 }
  - { offsetInCU: 0xCABC, offset: 0xCABC, size: 0x8, addend: 0x0, symName: __ZNKSt3__122__compressed_pair_elemIP7StudentLi0ELb0EE5__getB8ue170006Ev, symObjAddr: 0x1474, symBinAddr: 0x10000444C, symSize: 0x14 }
  - { offsetInCU: 0xCAE1, offset: 0xCAE1, size: 0x8, addend: 0x0, symName: __ZNSt3__112basic_stringIcNS_11char_traitsIcEENS_9allocatorIcEEEC2B8ue170006ILi0EEEPKc, symObjAddr: 0x1488, symBinAddr: 0x100004460, symSize: 0x58 }
  - { offsetInCU: 0xCB1F, offset: 0xCB1F, size: 0x8, addend: 0x0, symName: __ZNSt3__111char_traitsIcE6lengthB8ue170006EPKc, symObjAddr: 0x14E0, symBinAddr: 0x1000044B8, symSize: 0x48 }
  - { offsetInCU: 0xCB42, offset: 0xCB42, size: 0x8, addend: 0x0, symName: __ZNSt3__16vectorI7StudentNS_9allocatorIS1_EEE9__end_capB8ue170006Ev, symObjAddr: 0x154C, symBinAddr: 0x100004524, symSize: 0x28 }
  - { offsetInCU: 0xCB6C, offset: 0xCB6C, size: 0x8, addend: 0x0, symName: __ZNSt3__16vectorI7StudentNS_9allocatorIS1_EEE22__construct_one_at_endB8ue170006IJS1_EEEvDpOT_, symObjAddr: 0x1574, symBinAddr: 0x10000454C, symSize: 0x98 }
  - { offsetInCU: 0xCBB9, offset: 0xCBB9, size: 0x8, addend: 0x0, symName: __ZNSt3__16vectorI7StudentNS_9allocatorIS1_EEE21__push_back_slow_pathIS1_EEvOT_, symObjAddr: 0x160C, symBinAddr: 0x1000045E4, symSize: 0xE0 }
  - { offsetInCU: 0xCC16, offset: 0xCC16, size: 0x8, addend: 0x0, symName: __ZNSt3__117__compressed_pairIP7StudentNS_9allocatorIS1_EEE5firstB8ue170006Ev, symObjAddr: 0x16EC, symBinAddr: 0x1000046C4, symSize: 0x24 }
  - { offsetInCU: 0xCC3B, offset: 0xCC3B, size: 0x8, addend: 0x0, symName: __ZNSt3__122__compressed_pair_elemIP7StudentLi0ELb0EE5__getB8ue170006Ev, symObjAddr: 0x1710, symBinAddr: 0x1000046E8, symSize: 0x14 }
  - { offsetInCU: 0xCC79, offset: 0xCC79, size: 0x8, addend: 0x0, symName: __ZNSt3__16vectorI7StudentNS_9allocatorIS1_EEE21_ConstructTransactionC1B8ue170006ERS4_m, symObjAddr: 0x1724, symBinAddr: 0x1000046FC, symSize: 0x3C }
  - { offsetInCU: 0xCCC0, offset: 0xCCC0, size: 0x8, addend: 0x0, symName: __ZNSt3__116allocator_traitsINS_9allocatorI7StudentEEE9constructB8ue170006IS2_JS2_EvEEvRS3_PT_DpOT0_, symObjAddr: 0x1760, symBinAddr: 0x100004738, symSize: 0x34 }
  - { offsetInCU: 0xCD17, offset: 0xCD17, size: 0x8, addend: 0x0, symName: __ZNSt3__16vectorI7StudentNS_9allocatorIS1_EEE21_ConstructTransactionD1B8ue170006Ev, symObjAddr: 0x1794, symBinAddr: 0x10000476C, symSize: 0x2C }
  - { offsetInCU: 0xCD40, offset: 0xCD40, size: 0x8, addend: 0x0, symName: __ZNSt3__16vectorI7StudentNS_9allocatorIS1_EEE21_ConstructTransactionC2B8ue170006ERS4_m, symObjAddr: 0x17C0, symBinAddr: 0x100004798, symSize: 0x44 }
  - { offsetInCU: 0xCD87, offset: 0xCD87, size: 0x8, addend: 0x0, symName: __ZNSt3__19allocatorI7StudentE9constructB8ue170006IS1_JS1_EEEvPT_DpOT0_, symObjAddr: 0x1804, symBinAddr: 0x1000047DC, symSize: 0x30 }
  - { offsetInCU: 0xCDDC, offset: 0xCDDC, size: 0x8, addend: 0x0, symName: __ZNSt3__16vectorI7StudentNS_9allocatorIS1_EEE21_ConstructTransactionD2B8ue170006Ev, symObjAddr: 0x1834, symBinAddr: 0x10000480C, symSize: 0x20 }
  - { offsetInCU: 0xCE04, offset: 0xCE04, size: 0x8, addend: 0x0, symName: __ZNKSt3__16vectorI7StudentNS_9allocatorIS1_EEE11__recommendB8ue170006Em, symObjAddr: 0x1854, symBinAddr: 0x10000482C, symSize: 0xB4 }
  - { offsetInCU: 0xCE58, offset: 0xCE58, size: 0x8, addend: 0x0, symName: __ZNSt3__114__split_bufferI7StudentRNS_9allocatorIS1_EEEC1EmmS4_, symObjAddr: 0x1908, symBinAddr: 0x1000048E0, symSize: 0x44 }
  - { offsetInCU: 0xCEAD, offset: 0xCEAD, size: 0x8, addend: 0x0, symName: __ZNSt3__114__split_bufferI7StudentRNS_9allocatorIS1_EEED1Ev, symObjAddr: 0x1A5C, symBinAddr: 0x100004A34, symSize: 0x2C }
  - { offsetInCU: 0xCED7, offset: 0xCED7, size: 0x8, addend: 0x0, symName: __ZNKSt3__16vectorI7StudentNS_9allocatorIS1_EEE8max_sizeEv, symObjAddr: 0x1A88, symBinAddr: 0x100004A60, symSize: 0x74 }
  - { offsetInCU: 0xCEFE, offset: 0xCEFE, size: 0x8, addend: 0x0, symName: __ZNKSt3__16vectorI7StudentNS_9allocatorIS1_EEE20__throw_length_errorB8ue170006Ev, symObjAddr: 0x1AFC, symBinAddr: 0x100004AD4, symSize: 0x1C }
  - { offsetInCU: 0xCF2D, offset: 0xCF2D, size: 0x8, addend: 0x0, symName: __ZNSt3__116allocator_traitsINS_9allocatorI7StudentEEE8max_sizeB8ue170006IS3_vEEmRKS3_, symObjAddr: 0x1B70, symBinAddr: 0x100004B48, symSize: 0x24 }
  - { offsetInCU: 0xCF5B, offset: 0xCF5B, size: 0x8, addend: 0x0, symName: __ZNKSt3__16vectorI7StudentNS_9allocatorIS1_EEE7__allocB8ue170006Ev, symObjAddr: 0x1B94, symBinAddr: 0x100004B6C, symSize: 0x28 }
  - { offsetInCU: 0xCF80, offset: 0xCF80, size: 0x8, addend: 0x0, symName: __ZNSt3__114numeric_limitsIlE3maxB8ue170006Ev, symObjAddr: 0x1BBC, symBinAddr: 0x100004B94, symSize: 0x14 }
  - { offsetInCU: 0xCFA8, offset: 0xCFA8, size: 0x8, addend: 0x0, symName: __ZNKSt3__16__lessIvvEclB8ue170006ImmEEbRKT_RKT0_, symObjAddr: 0x1C24, symBinAddr: 0x100004BFC, symSize: 0x34 }
  - { offsetInCU: 0xCFFB, offset: 0xCFFB, size: 0x8, addend: 0x0, symName: __ZNKSt3__19allocatorI7StudentE8max_sizeB8ue170006Ev, symObjAddr: 0x1C58, symBinAddr: 0x100004C30, symSize: 0x14 }
  - { offsetInCU: 0xD020, offset: 0xD020, size: 0x8, addend: 0x0, symName: __ZNKSt3__117__compressed_pairIP7StudentNS_9allocatorIS1_EEE6secondB8ue170006Ev, symObjAddr: 0x1C6C, symBinAddr: 0x100004C44, symSize: 0x24 }
  - { offsetInCU: 0xD045, offset: 0xD045, size: 0x8, addend: 0x0, symName: __ZNKSt3__122__compressed_pair_elemINS_9allocatorI7StudentEELi1ELb1EE5__getB8ue170006Ev, symObjAddr: 0x1C90, symBinAddr: 0x100004C68, symSize: 0x14 }
  - { offsetInCU: 0xD06A, offset: 0xD06A, size: 0x8, addend: 0x0, symName: __ZNSt3__123__libcpp_numeric_limitsIlLb1EE3maxB8ue170006Ev, symObjAddr: 0x1CA4, symBinAddr: 0x100004C7C, symSize: 0x8 }
  - { offsetInCU: 0xD07E, offset: 0xD07E, size: 0x8, addend: 0x0, symName: __ZNSt12length_errorC1B8ue170006EPKc, symObjAddr: 0x1D10, symBinAddr: 0x100004CE8, symSize: 0x34 }
  - { offsetInCU: 0xD0B5, offset: 0xD0B5, size: 0x8, addend: 0x0, symName: __ZNSt12length_errorC2B8ue170006EPKc, symObjAddr: 0x1D44, symBinAddr: 0x100004D1C, symSize: 0x4C }
  - { offsetInCU: 0xD0EC, offset: 0xD0EC, size: 0x8, addend: 0x0, symName: __ZNSt3__114__split_bufferI7StudentRNS_9allocatorIS1_EEEC2EmmS4_, symObjAddr: 0x1DE4, symBinAddr: 0x100004DBC, symSize: 0xD4 }
  - { offsetInCU: 0xD15E, offset: 0xD15E, size: 0x8, addend: 0x0, symName: __ZNSt3__117__compressed_pairIP7StudentRNS_9allocatorIS1_EEEC1B8ue170006IDnS5_EEOT_OT0_, symObjAddr: 0x1EB8, symBinAddr: 0x100004E90, symSize: 0x3C }
  - { offsetInCU: 0xD1B5, offset: 0xD1B5, size: 0x8, addend: 0x0, symName: __ZNSt3__114__split_bufferI7StudentRNS_9allocatorIS1_EEE7__allocB8ue170006Ev, symObjAddr: 0x1F34, symBinAddr: 0x100004F0C, symSize: 0x28 }
  - { offsetInCU: 0xD1DA, offset: 0xD1DA, size: 0x8, addend: 0x0, symName: __ZNSt3__114__split_bufferI7StudentRNS_9allocatorIS1_EEE9__end_capB8ue170006Ev, symObjAddr: 0x1F5C, symBinAddr: 0x100004F34, symSize: 0x28 }
  - { offsetInCU: 0xD1FF, offset: 0xD1FF, size: 0x8, addend: 0x0, symName: __ZNSt3__117__compressed_pairIP7StudentRNS_9allocatorIS1_EEEC2B8ue170006IDnS5_EEOT_OT0_, symObjAddr: 0x1F84, symBinAddr: 0x100004F5C, symSize: 0x48 }
  - { offsetInCU: 0xD256, offset: 0xD256, size: 0x8, addend: 0x0, symName: __ZNSt3__122__compressed_pair_elemIRNS_9allocatorI7StudentEELi1ELb0EEC2B8ue170006IS4_vEEOT_, symObjAddr: 0x1FCC, symBinAddr: 0x100004FA4, symSize: 0x20 }
  - { offsetInCU: 0xD297, offset: 0xD297, size: 0x8, addend: 0x0, symName: __ZNSt3__19allocatorI7StudentE8allocateB8ue170006Em, symObjAddr: 0x1FEC, symBinAddr: 0x100004FC4, symSize: 0x84 }
  - { offsetInCU: 0xD2CA, offset: 0xD2CA, size: 0x8, addend: 0x0, symName: __ZNSt3__117__compressed_pairIP7StudentRNS_9allocatorIS1_EEE6secondB8ue170006Ev, symObjAddr: 0x2070, symBinAddr: 0x100005048, symSize: 0x28 }
  - { offsetInCU: 0xD2EF, offset: 0xD2EF, size: 0x8, addend: 0x0, symName: __ZNSt3__122__compressed_pair_elemIRNS_9allocatorI7StudentEELi1ELb0EE5__getB8ue170006Ev, symObjAddr: 0x2098, symBinAddr: 0x100005070, symSize: 0x18 }
  - { offsetInCU: 0xD314, offset: 0xD314, size: 0x8, addend: 0x0, symName: __ZNSt3__117__compressed_pairIP7StudentRNS_9allocatorIS1_EEE5firstB8ue170006Ev, symObjAddr: 0x20B0, symBinAddr: 0x100005088, symSize: 0x24 }
  - { offsetInCU: 0xD339, offset: 0xD339, size: 0x8, addend: 0x0, symName: __ZNSt3__116reverse_iteratorIP7StudentEC1B8ue170006ES2_, symObjAddr: 0x2208, symBinAddr: 0x1000051E0, symSize: 0x34 }
  - { offsetInCU: 0xD370, offset: 0xD370, size: 0x8, addend: 0x0, symName: __ZNKSt3__116reverse_iteratorIP7StudentE4baseB8ue170006Ev, symObjAddr: 0x223C, symBinAddr: 0x100005214, symSize: 0x18 }
  - { offsetInCU: 0xD395, offset: 0xD395, size: 0x8, addend: 0x0, symName: __ZNKSt3__16vectorI7StudentNS_9allocatorIS1_EEE14__annotate_newB8ue170006Em, symObjAddr: 0x2290, symBinAddr: 0x100005268, symSize: 0xAC }
  - { offsetInCU: 0xD3C9, offset: 0xD3C9, size: 0x8, addend: 0x0, symName: __ZNSt3__129_AllocatorDestroyRangeReverseINS_9allocatorI7StudentEENS_16reverse_iteratorIPS2_EEEC1B8ue170006ERS3_RS6_S9_, symObjAddr: 0x2388, symBinAddr: 0x100005360, symSize: 0x44 }
  - { offsetInCU: 0xD41F, offset: 0xD41F, size: 0x8, addend: 0x0, symName: __ZNSt3__116allocator_traitsINS_9allocatorI7StudentEEE9constructB8ue170006IS2_JRKS2_EvEEvRS3_PT_DpOT0_, symObjAddr: 0x2414, symBinAddr: 0x1000053EC, symSize: 0x34 }
  - { offsetInCU: 0xD476, offset: 0xD476, size: 0x8, addend: 0x0, symName: __ZNKSt3__116reverse_iteratorIP7StudentEdeB8ue170006Ev, symObjAddr: 0x246C, symBinAddr: 0x100005444, symSize: 0x28 }
  - { offsetInCU: 0xD4A9, offset: 0xD4A9, size: 0x8, addend: 0x0, symName: __ZNSt3__116reverse_iteratorIP7StudentEppB8ue170006Ev, symObjAddr: 0x2494, symBinAddr: 0x10000546C, symSize: 0x20 }
  - { offsetInCU: 0xD4CE, offset: 0xD4CE, size: 0x8, addend: 0x0, symName: __ZNSt3__128__exception_guard_exceptionsINS_29_AllocatorDestroyRangeReverseINS_9allocatorI7StudentEENS_16reverse_iteratorIPS3_EEEEE10__completeB8ue170006Ev, symObjAddr: 0x24B4, symBinAddr: 0x10000548C, symSize: 0x1C }
  - { offsetInCU: 0xD4F3, offset: 0xD4F3, size: 0x8, addend: 0x0, symName: __ZNSt3__128__exception_guard_exceptionsINS_29_AllocatorDestroyRangeReverseINS_9allocatorI7StudentEENS_16reverse_iteratorIPS3_EEEEED1B8ue170006Ev, symObjAddr: 0x24D0, symBinAddr: 0x1000054A8, symSize: 0x2C }
  - { offsetInCU: 0xD51C, offset: 0xD51C, size: 0x8, addend: 0x0, symName: __ZNSt3__128__exception_guard_exceptionsINS_29_AllocatorDestroyRangeReverseINS_9allocatorI7StudentEENS_16reverse_iteratorIPS3_EEEEEC1B8ue170006ES8_, symObjAddr: 0x24FC, symBinAddr: 0x1000054D4, symSize: 0x34 }
  - { offsetInCU: 0xD554, offset: 0xD554, size: 0x8, addend: 0x0, symName: __ZNSt3__128__exception_guard_exceptionsINS_29_AllocatorDestroyRangeReverseINS_9allocatorI7StudentEENS_16reverse_iteratorIPS3_EEEEEC2B8ue170006ES8_, symObjAddr: 0x2530, symBinAddr: 0x100005508, symSize: 0x30 }
  - { offsetInCU: 0xD58C, offset: 0xD58C, size: 0x8, addend: 0x0, symName: __ZNSt3__129_AllocatorDestroyRangeReverseINS_9allocatorI7StudentEENS_16reverse_iteratorIPS2_EEEC2B8ue170006ERS3_RS6_S9_, symObjAddr: 0x2560, symBinAddr: 0x100005538, symSize: 0x38 }
  - { offsetInCU: 0xD5E2, offset: 0xD5E2, size: 0x8, addend: 0x0, symName: __ZNSt3__19allocatorI7StudentE9constructB8ue170006IS1_JRKS1_EEEvPT_DpOT0_, symObjAddr: 0x2598, symBinAddr: 0x100005570, symSize: 0x30 }
  - { offsetInCU: 0xD63C, offset: 0xD63C, size: 0x8, addend: 0x0, symName: __ZNSt3__119__to_address_helperINS_16reverse_iteratorIP7StudentEEvE6__callB8ue170006ERKS4_, symObjAddr: 0x25C8, symBinAddr: 0x1000055A0, symSize: 0x4C }
  - { offsetInCU: 0xD65F, offset: 0xD65F, size: 0x8, addend: 0x0, symName: __ZNKSt3__116reverse_iteratorIP7StudentEptB8ue170006Ev, symObjAddr: 0x2614, symBinAddr: 0x1000055EC, symSize: 0x24 }
  - { offsetInCU: 0xD684, offset: 0xD684, size: 0x8, addend: 0x0, symName: __ZNSt3__128__exception_guard_exceptionsINS_29_AllocatorDestroyRangeReverseINS_9allocatorI7StudentEENS_16reverse_iteratorIPS3_EEEEED2B8ue170006Ev, symObjAddr: 0x2638, symBinAddr: 0x100005610, symSize: 0x48 }
  - { offsetInCU: 0xD6AD, offset: 0xD6AD, size: 0x8, addend: 0x0, symName: __ZNKSt3__129_AllocatorDestroyRangeReverseINS_9allocatorI7StudentEENS_16reverse_iteratorIPS2_EEEclB8ue170006Ev, symObjAddr: 0x2680, symBinAddr: 0x100005658, symSize: 0xB4 }
  - { offsetInCU: 0xD6D3, offset: 0xD6D3, size: 0x8, addend: 0x0, symName: __ZNSt3__116reverse_iteratorINS0_IP7StudentEEEC1B8ue170006ES3_, symObjAddr: 0x27A4, symBinAddr: 0x10000577C, symSize: 0x3C }
  - { offsetInCU: 0xD70A, offset: 0xD70A, size: 0x8, addend: 0x0, symName: __ZNSt3__116reverse_iteratorINS0_IP7StudentEEEppB8ue170006Ev, symObjAddr: 0x2864, symBinAddr: 0x10000583C, symSize: 0x30 }
  - { offsetInCU: 0xD72F, offset: 0xD72F, size: 0x8, addend: 0x0, symName: __ZNKSt3__116reverse_iteratorINS0_IP7StudentEEE4baseB8ue170006Ev, symObjAddr: 0x2894, symBinAddr: 0x10000586C, symSize: 0x24 }
  - { offsetInCU: 0xD759, offset: 0xD759, size: 0x8, addend: 0x0, symName: __ZNSt3__119__to_address_helperINS_16reverse_iteratorINS1_IP7StudentEEEEvE6__callB8ue170006ERKS5_, symObjAddr: 0x28B8, symBinAddr: 0x100005890, symSize: 0x4C }
  - { offsetInCU: 0xD77C, offset: 0xD77C, size: 0x8, addend: 0x0, symName: __ZNKSt3__116reverse_iteratorINS0_IP7StudentEEEptB8ue170006Ev, symObjAddr: 0x2904, symBinAddr: 0x1000058DC, symSize: 0x24 }
  - { offsetInCU: 0xD7A1, offset: 0xD7A1, size: 0x8, addend: 0x0, symName: __ZNKSt3__116reverse_iteratorINS0_IP7StudentEEEdeB8ue170006Ev, symObjAddr: 0x2928, symBinAddr: 0x100005900, symSize: 0x34 }
  - { offsetInCU: 0xD7D4, offset: 0xD7D4, size: 0x8, addend: 0x0, symName: __ZNSt3__116reverse_iteratorIP7StudentEmmB8ue170006Ev, symObjAddr: 0x295C, symBinAddr: 0x100005934, symSize: 0x20 }
  - { offsetInCU: 0xD7F9, offset: 0xD7F9, size: 0x8, addend: 0x0, symName: __ZNSt3__116reverse_iteratorINS0_IP7StudentEEEC2B8ue170006ES3_, symObjAddr: 0x297C, symBinAddr: 0x100005954, symSize: 0x2C }
  - { offsetInCU: 0xD830, offset: 0xD830, size: 0x8, addend: 0x0, symName: __ZNSt3__116reverse_iteratorIP7StudentEC2B8ue170006ES2_, symObjAddr: 0x29A8, symBinAddr: 0x100005980, symSize: 0x28 }
  - { offsetInCU: 0xD867, offset: 0xD867, size: 0x8, addend: 0x0, symName: __ZNSt3__114__split_bufferI7StudentRNS_9allocatorIS1_EEED2Ev, symObjAddr: 0x29D0, symBinAddr: 0x1000059A8, symSize: 0x80 }
  - { offsetInCU: 0xD892, offset: 0xD892, size: 0x8, addend: 0x0, symName: __ZNSt3__114__split_bufferI7StudentRNS_9allocatorIS1_EEE5clearB8ue170006Ev, symObjAddr: 0x2A50, symBinAddr: 0x100005A28, symSize: 0x28 }
  - { offsetInCU: 0xD8B7, offset: 0xD8B7, size: 0x8, addend: 0x0, symName: __ZNKSt3__114__split_bufferI7StudentRNS_9allocatorIS1_EEE8capacityB8ue170006Ev, symObjAddr: 0x2A78, symBinAddr: 0x100005A50, symSize: 0x40 }
  - { offsetInCU: 0xD8DC, offset: 0xD8DC, size: 0x8, addend: 0x0, symName: __ZNSt3__114__split_bufferI7StudentRNS_9allocatorIS1_EEE17__destruct_at_endB8ue170006EPS1_, symObjAddr: 0x2AB8, symBinAddr: 0x100005A90, symSize: 0x2C }
  - { offsetInCU: 0xD90E, offset: 0xD90E, size: 0x8, addend: 0x0, symName: __ZNSt3__114__split_bufferI7StudentRNS_9allocatorIS1_EEE17__destruct_at_endB8ue170006EPS1_NS_17integral_constantIbLb0EEE, symObjAddr: 0x2AE4, symBinAddr: 0x100005ABC, symSize: 0x94 }
  - { offsetInCU: 0xD94E, offset: 0xD94E, size: 0x8, addend: 0x0, symName: __ZNKSt3__114__split_bufferI7StudentRNS_9allocatorIS1_EEE9__end_capB8ue170006Ev, symObjAddr: 0x2B78, symBinAddr: 0x100005B50, symSize: 0x28 }
  - { offsetInCU: 0xD973, offset: 0xD973, size: 0x8, addend: 0x0, symName: __ZNKSt3__117__compressed_pairIP7StudentRNS_9allocatorIS1_EEE5firstB8ue170006Ev, symObjAddr: 0x2BA0, symBinAddr: 0x100005B78, symSize: 0x24 }
  - { offsetInCU: 0xD998, offset: 0xD998, size: 0x8, addend: 0x0, symName: __ZNSt3__16vectorI7StudentNS_9allocatorIS1_EEE11__make_iterB8ue170006EPS1_, symObjAddr: 0x2BC4, symBinAddr: 0x100005B9C, symSize: 0x30 }
  - { offsetInCU: 0xD9CC, offset: 0xD9CC, size: 0x8, addend: 0x0, symName: __ZNSt3__111__wrap_iterIP7StudentEC1B8ue170006ES2_, symObjAddr: 0x2BF4, symBinAddr: 0x100005BCC, symSize: 0x34 }
  - { offsetInCU: 0xDA03, offset: 0xDA03, size: 0x8, addend: 0x0, symName: __ZNSt3__111__wrap_iterIP7StudentEC2B8ue170006ES2_, symObjAddr: 0x2C28, symBinAddr: 0x100005C00, symSize: 0x20 }
  - { offsetInCU: 0xDA3A, offset: 0xDA3A, size: 0x8, addend: 0x0, symName: __ZNSt3__18_IterOpsINS_17_ClassicAlgPolicyEE4nextB8ue170006IP7StudentEET_S6_S6_, symObjAddr: 0x2EA0, symBinAddr: 0x100005E78, symSize: 0x18 }
  - { offsetInCU: 0xDAA0, offset: 0xDAA0, size: 0x8, addend: 0x0, symName: __ZN10comparatorclE7StudentS0_, symObjAddr: 0x3120, symBinAddr: 0x1000060F8, symSize: 0xA0 }
  - { offsetInCU: 0xDAE3, offset: 0xDAE3, size: 0x8, addend: 0x0, symName: __ZNSt3__18_IterOpsINS_17_ClassicAlgPolicyEE9iter_swapB8ue170006IRP7StudentS6_EEvOT_OT0_, symObjAddr: 0x31C0, symBinAddr: 0x100006198, symSize: 0x34 }
  - { offsetInCU: 0xDB25, offset: 0xDB25, size: 0x8, addend: 0x0, symName: __ZNKSt3__112basic_stringIcNS_11char_traitsIcEENS_9allocatorIcEEE7compareB8ue170006ERKS5_, symObjAddr: 0x37C8, symBinAddr: 0x1000067A0, symSize: 0x4C }
  - { offsetInCU: 0xDB5A, offset: 0xDB5A, size: 0x8, addend: 0x0, symName: __ZNKSt3__112basic_stringIcNS_11char_traitsIcEENS_9allocatorIcEEE7compareINS_17basic_string_viewIcS2_EELi0EEEiRKT_, symObjAddr: 0x3814, symBinAddr: 0x1000067EC, symSize: 0x140 }
  - { offsetInCU: 0xDBDC, offset: 0xDBDC, size: 0x8, addend: 0x0, symName: __ZNKSt3__112basic_stringIcNS_11char_traitsIcEENS_9allocatorIcEEEcvNS_17basic_string_viewIcS2_EEB8ue170006Ev, symObjAddr: 0x3954, symBinAddr: 0x10000692C, symSize: 0x50 }
  - { offsetInCU: 0xDC01, offset: 0xDC01, size: 0x8, addend: 0x0, symName: __ZNKSt3__112basic_stringIcNS_11char_traitsIcEENS_9allocatorIcEEE4sizeB8ue170006Ev, symObjAddr: 0x39A4, symBinAddr: 0x10000697C, symSize: 0x54 }
  - { offsetInCU: 0xDC26, offset: 0xDC26, size: 0x8, addend: 0x0, symName: __ZNKSt3__117basic_string_viewIcNS_11char_traitsIcEEE4sizeB8ue170006Ev, symObjAddr: 0x39F8, symBinAddr: 0x1000069D0, symSize: 0x18 }
  - { offsetInCU: 0xDC4B, offset: 0xDC4B, size: 0x8, addend: 0x0, symName: __ZNSt3__111char_traitsIcE7compareB8ue170006EPKcS3_m, symObjAddr: 0x3A10, symBinAddr: 0x1000069E8, symSize: 0x64 }
  - { offsetInCU: 0xDC8A, offset: 0xDC8A, size: 0x8, addend: 0x0, symName: __ZNKSt3__112basic_stringIcNS_11char_traitsIcEENS_9allocatorIcEEE4dataB8ue170006Ev, symObjAddr: 0x3A74, symBinAddr: 0x100006A4C, symSize: 0x28 }
  - { offsetInCU: 0xDCAF, offset: 0xDCAF, size: 0x8, addend: 0x0, symName: __ZNKSt3__117basic_string_viewIcNS_11char_traitsIcEEE4dataB8ue170006Ev, symObjAddr: 0x3A9C, symBinAddr: 0x100006A74, symSize: 0x18 }
  - { offsetInCU: 0xDCD4, offset: 0xDCD4, size: 0x8, addend: 0x0, symName: __ZNKSt3__112basic_stringIcNS_11char_traitsIcEENS_9allocatorIcEEE9__is_longB8ue170006Ev, symObjAddr: 0x3AB4, symBinAddr: 0x100006A8C, symSize: 0x74 }
  - { offsetInCU: 0xDCF9, offset: 0xDCF9, size: 0x8, addend: 0x0, symName: __ZNKSt3__112basic_stringIcNS_11char_traitsIcEENS_9allocatorIcEEE15__get_long_sizeB8ue170006Ev, symObjAddr: 0x3B28, symBinAddr: 0x100006B00, symSize: 0x28 }
  - { offsetInCU: 0xDD1E, offset: 0xDD1E, size: 0x8, addend: 0x0, symName: __ZNKSt3__112basic_stringIcNS_11char_traitsIcEENS_9allocatorIcEEE16__get_short_sizeB8ue170006Ev, symObjAddr: 0x3B50, symBinAddr: 0x100006B28, symSize: 0x34 }
  - { offsetInCU: 0xDD43, offset: 0xDD43, size: 0x8, addend: 0x0, symName: __ZNKSt3__117__compressed_pairINS_12basic_stringIcNS_11char_traitsIcEENS_9allocatorIcEEE5__repES5_E5firstB8ue170006Ev, symObjAddr: 0x3B84, symBinAddr: 0x100006B5C, symSize: 0x24 }
  - { offsetInCU: 0xDD68, offset: 0xDD68, size: 0x8, addend: 0x0, symName: __ZNKSt3__122__compressed_pair_elemINS_12basic_stringIcNS_11char_traitsIcEENS_9allocatorIcEEE5__repELi0ELb0EE5__getB8ue170006Ev, symObjAddr: 0x3BA8, symBinAddr: 0x100006B80, symSize: 0x14 }
  - { offsetInCU: 0xDD8D, offset: 0xDD8D, size: 0x8, addend: 0x0, symName: __ZNKSt3__112basic_stringIcNS_11char_traitsIcEENS_9allocatorIcEEE13__get_pointerB8ue170006Ev, symObjAddr: 0x3BD0, symBinAddr: 0x100006BA8, symSize: 0x54 }
  - { offsetInCU: 0xDDB2, offset: 0xDDB2, size: 0x8, addend: 0x0, symName: __ZNKSt3__112basic_stringIcNS_11char_traitsIcEENS_9allocatorIcEEE18__get_long_pointerB8ue170006Ev, symObjAddr: 0x3C24, symBinAddr: 0x100006BFC, symSize: 0x28 }
  - { offsetInCU: 0xDDD7, offset: 0xDDD7, size: 0x8, addend: 0x0, symName: __ZNKSt3__112basic_stringIcNS_11char_traitsIcEENS_9allocatorIcEEE19__get_short_pointerB8ue170006Ev, symObjAddr: 0x3C4C, symBinAddr: 0x100006C24, symSize: 0x28 }
  - { offsetInCU: 0xDDFC, offset: 0xDDFC, size: 0x8, addend: 0x0, symName: __ZNSt3__114pointer_traitsIPKcE10pointer_toB8ue170006ERS1_, symObjAddr: 0x3C74, symBinAddr: 0x100006C4C, symSize: 0x14 }
  - { offsetInCU: 0xDE1F, offset: 0xDE1F, size: 0x8, addend: 0x0, symName: __ZNSt3__117basic_string_viewIcNS_11char_traitsIcEEEC1B8ue170006EPKcm, symObjAddr: 0x3C88, symBinAddr: 0x100006C60, symSize: 0x3C }
  - { offsetInCU: 0xDE66, offset: 0xDE66, size: 0x8, addend: 0x0, symName: __ZNSt3__117basic_string_viewIcNS_11char_traitsIcEEEC2B8ue170006EPKcm, symObjAddr: 0x3CC4, symBinAddr: 0x100006C9C, symSize: 0x2C }
  - { offsetInCU: 0xDEAD, offset: 0xDEAD, size: 0x8, addend: 0x0, symName: __ZN7StudentaSERKS_, symObjAddr: 0x3D98, symBinAddr: 0x100006D70, symSize: 0x48 }
  - { offsetInCU: 0xDEDD, offset: 0xDEDD, size: 0x8, addend: 0x0, symName: __ZNSt3__18_IterOpsINS_17_ClassicAlgPolicyEE11__iter_moveB8ue170006IRP7StudentEENS_9enable_ifIXsr12is_referenceIDTdeclsr3stdE7declvalIRT_EEEEE5valueEDTclsr3stdE4movedeclsr3stdE7declvalIS9_EEEEE4typeEOS8_, symObjAddr: 0x3DE0, symBinAddr: 0x100006DB8, symSize: 0x28 }
  - { offsetInCU: 0xDF09, offset: 0xDF09, size: 0x8, addend: 0x0, symName: __ZNSt3__18_IterOpsINS_17_ClassicAlgPolicyEE25__validate_iter_referenceB8ue170006IRP7StudentEEvv, symObjAddr: 0x3E08, symBinAddr: 0x100006DE0, symSize: 0x4 }
  - { offsetInCU: 0xDF27, offset: 0xDF27, size: 0x8, addend: 0x0, symName: __ZNSt3__118__unwrap_iter_implINS_11__wrap_iterIP7StudentEELb1EE8__unwrapB8ue170006ES4_, symObjAddr: 0x4380, symBinAddr: 0x100007358, symSize: 0x28 }
  - { offsetInCU: 0xDF54, offset: 0xDF54, size: 0x8, addend: 0x0, symName: __ZNSt3__119__to_address_helperINS_11__wrap_iterIP7StudentEEvE6__callB8ue170006ERKS4_, symObjAddr: 0x43CC, symBinAddr: 0x1000073A4, symSize: 0x30 }
  - { offsetInCU: 0xDF77, offset: 0xDF77, size: 0x8, addend: 0x0, symName: __ZNSt3__114pointer_traitsINS_11__wrap_iterIP7StudentEEE10to_addressB8ue170006ES4_, symObjAddr: 0x43FC, symBinAddr: 0x1000073D4, symSize: 0x2C }
  - { offsetInCU: 0xDF9A, offset: 0xDF9A, size: 0x8, addend: 0x0, symName: __ZNKSt3__111__wrap_iterIP7StudentE4baseB8ue170006Ev, symObjAddr: 0x4428, symBinAddr: 0x100007400, symSize: 0x18 }
  - { offsetInCU: 0xDFC4, offset: 0xDFC4, size: 0x8, addend: 0x0, symName: __ZNSt3__18_IterOpsINS_17_ClassicAlgPolicyEE9iter_swapB8ue170006IRP7StudentS5_EEvOT_OT0_, symObjAddr: 0x54EC, symBinAddr: 0x1000084C4, symSize: 0x34 }
  - { offsetInCU: 0xE007, offset: 0xE007, size: 0x8, addend: 0x0, symName: __ZNSt3__18_IterOpsINS_17_ClassicAlgPolicyEE9iter_swapB8ue170006IP7StudentS5_EEvOT_OT0_, symObjAddr: 0x7844, symBinAddr: 0x10000A81C, symSize: 0x34 }
  - { offsetInCU: 0xE068, offset: 0xE068, size: 0x8, addend: 0x0, symName: __ZNSt3__14pairIP7StudentbEC1B8ue170006ERKS2_RKb, symObjAddr: 0x7894, symBinAddr: 0x10000A86C, symSize: 0x3C }
  - { offsetInCU: 0xE0AD, offset: 0xE0AD, size: 0x8, addend: 0x0, symName: __ZNSt3__14pairIP7StudentbEC2B8ue170006ERKS2_RKb, symObjAddr: 0x78D0, symBinAddr: 0x10000A8A8, symSize: 0x38 }
  - { offsetInCU: 0xE110, offset: 0xE110, size: 0x8, addend: 0x0, symName: __ZNKSt3__113basic_ostreamIcNS_11char_traitsIcEEE6sentrycvbB8ue170006Ev, symObjAddr: 0x7B44, symBinAddr: 0x10000AB1C, symSize: 0x1C }
  - { offsetInCU: 0xE135, offset: 0xE135, size: 0x8, addend: 0x0, symName: __ZNSt3__119ostreambuf_iteratorIcNS_11char_traitsIcEEEC1B8ue170006ERNS_13basic_ostreamIcS2_EE, symObjAddr: 0x7DA8, symBinAddr: 0x10000AD80, symSize: 0x34 }
  - { offsetInCU: 0xE16C, offset: 0xE16C, size: 0x8, addend: 0x0, symName: __ZNKSt3__18ios_base5flagsB8ue170006Ev, symObjAddr: 0x7DDC, symBinAddr: 0x10000ADB4, symSize: 0x18 }
  - { offsetInCU: 0xE192, offset: 0xE192, size: 0x8, addend: 0x0, symName: __ZNKSt3__19basic_iosIcNS_11char_traitsIcEEE4fillB8ue170006Ev, symObjAddr: 0x7DF4, symBinAddr: 0x10000ADCC, symSize: 0x64 }
  - { offsetInCU: 0xE1B9, offset: 0xE1B9, size: 0x8, addend: 0x0, symName: __ZNKSt3__119ostreambuf_iteratorIcNS_11char_traitsIcEEE6failedB8ue170006Ev, symObjAddr: 0x7E58, symBinAddr: 0x10000AE30, symSize: 0x24 }
  - { offsetInCU: 0xE1DE, offset: 0xE1DE, size: 0x8, addend: 0x0, symName: __ZNSt3__19basic_iosIcNS_11char_traitsIcEEE8setstateB8ue170006Ej, symObjAddr: 0x7E7C, symBinAddr: 0x10000AE54, symSize: 0x2C }
  - { offsetInCU: 0xE212, offset: 0xE212, size: 0x8, addend: 0x0, symName: __ZNKSt3__18ios_base5widthB8ue170006Ev, symObjAddr: 0x7EA8, symBinAddr: 0x10000AE80, symSize: 0x18 }
  - { offsetInCU: 0xE239, offset: 0xE239, size: 0x8, addend: 0x0, symName: __ZNSt3__115basic_streambufIcNS_11char_traitsIcEEE5sputnB8ue170006EPKcl, symObjAddr: 0x7EC0, symBinAddr: 0x10000AE98, symSize: 0x3C }
  - { offsetInCU: 0xE27A, offset: 0xE27A, size: 0x8, addend: 0x0, symName: __ZNSt3__112basic_stringIcNS_11char_traitsIcEENS_9allocatorIcEEEC1B8ue170006Emc, symObjAddr: 0x7EFC, symBinAddr: 0x10000AED4, symSize: 0x3C }
  - { offsetInCU: 0xE2C1, offset: 0xE2C1, size: 0x8, addend: 0x0, symName: __ZNSt3__18ios_base5widthB8ue170006El, symObjAddr: 0x7F38, symBinAddr: 0x10000AF10, symSize: 0x2C }
  - { offsetInCU: 0xE306, offset: 0xE306, size: 0x8, addend: 0x0, symName: __ZNSt3__112basic_stringIcNS_11char_traitsIcEENS_9allocatorIcEEEC2B8ue170006Emc, symObjAddr: 0x7F64, symBinAddr: 0x10000AF3C, symSize: 0x4C }
  - { offsetInCU: 0xE34D, offset: 0xE34D, size: 0x8, addend: 0x0, symName: __ZNSt3__119ostreambuf_iteratorIcNS_11char_traitsIcEEEC2B8ue170006ERNS_13basic_ostreamIcS2_EE, symObjAddr: 0x7FB0, symBinAddr: 0x10000AF88, symSize: 0x68 }
  - { offsetInCU: 0xE383, offset: 0xE383, size: 0x8, addend: 0x0, symName: __ZNKSt3__19basic_iosIcNS_11char_traitsIcEEE5rdbufB8ue170006Ev, symObjAddr: 0x8018, symBinAddr: 0x10000AFF0, symSize: 0x24 }
  - { offsetInCU: 0xE3AA, offset: 0xE3AA, size: 0x8, addend: 0x0, symName: __ZNKSt3__18ios_base5rdbufB8ue170006Ev, symObjAddr: 0x803C, symBinAddr: 0x10000B014, symSize: 0x18 }
  - { offsetInCU: 0xE3CF, offset: 0xE3CF, size: 0x8, addend: 0x0, symName: __ZNSt3__111char_traitsIcE11eq_int_typeB8ue170006Eii, symObjAddr: 0x8054, symBinAddr: 0x10000B02C, symSize: 0x28 }
  - { offsetInCU: 0xE402, offset: 0xE402, size: 0x8, addend: 0x0, symName: __ZNSt3__111char_traitsIcE3eofB8ue170006Ev, symObjAddr: 0x807C, symBinAddr: 0x10000B054, symSize: 0x8 }
  - { offsetInCU: 0xE415, offset: 0xE415, size: 0x8, addend: 0x0, symName: __ZNKSt3__19basic_iosIcNS_11char_traitsIcEEE5widenB8ue170006Ec, symObjAddr: 0x8084, symBinAddr: 0x10000B05C, symSize: 0x8C }
  - { offsetInCU: 0xE482, offset: 0xE482, size: 0x8, addend: 0x0, symName: __ZNKSt3__15ctypeIcE5widenB8ue170006Ec, symObjAddr: 0x813C, symBinAddr: 0x10000B114, symSize: 0x38 }
  - { offsetInCU: 0xE4B5, offset: 0xE4B5, size: 0x8, addend: 0x0, symName: __ZNSt3__18ios_base8setstateB8ue170006Ej, symObjAddr: 0x8174, symBinAddr: 0x10000B14C, symSize: 0x34 }
...
