---
triple:          'arm64-apple-darwin'
binary-path:     '/Users/lovebabbar/Desktop/C++STL Codes/output/customPriority'
relocations:
  - { offsetInCU: 0x4B6A, offset: 0x4B6A, size: 0x8, addend: 0x0, symName: __ZNSt3__124__put_character_sequenceB8ue170006IcNS_11char_traitsIcEEEERNS_13basic_ostreamIT_T0_EES7_PKS4_m, symObjAddr: 0x3340, symBinAddr: 0x1000067BC, symSize: 0x1F4 }
  - { offsetInCU: 0x59D3, offset: 0x59D3, size: 0x8, addend: 0x0, symName: __ZNSt3__117__floyd_sift_downB8ue170006INS_17_ClassicAlgPolicyER10comparatorNS_11__wrap_iterIP7StudentEEEET1_S8_OT0_NS_15iterator_traitsIS8_E15difference_typeE, symObjAddr: 0x3FE0, symBinAddr: 0x10000745C, symSize: 0x220 }
  - { offsetInCU: 0x6927, offset: 0x6927, size: 0x8, addend: 0x0, symName: __ZNSt3__1lsB8ue170006IcNS_11char_traitsIcEENS_9allocatorIcEEEERNS_13basic_ostreamIT_T0_EES9_RKNS_12basic_stringIS6_S7_T1_EE, symObjAddr: 0x5E4, symBinAddr: 0x100003A60, symSize: 0x4C }
  - { offsetInCU: 0x697F, offset: 0x697F, size: 0x8, addend: 0x0, symName: __ZNSt3__1lsB8ue170006INS_11char_traitsIcEEEERNS_13basic_ostreamIcT_EES6_PKc, symObjAddr: 0x630, symBinAddr: 0x100003AAC, symSize: 0x48 }
  - { offsetInCU: 0x69C5, offset: 0x69C5, size: 0x8, addend: 0x0, symName: __ZNSt3__14endlB8ue170006IcNS_11char_traitsIcEEEERNS_13basic_ostreamIT_T0_EES7_, symObjAddr: 0x6C8, symBinAddr: 0x100003B44, symSize: 0x58 }
  - { offsetInCU: 0x6A05, offset: 0x6A05, size: 0x8, addend: 0x0, symName: __ZNSt3__130__libcpp_is_constant_evaluatedB8ue170006Ev, symObjAddr: 0xA58, symBinAddr: 0x100003ED4, symSize: 0xC }
  - { offsetInCU: 0x6A22, offset: 0x6A22, size: 0x8, addend: 0x0, symName: __ZNSt3__117__libcpp_allocateB8ue170006Emm, symObjAddr: 0xD50, symBinAddr: 0x1000041CC, symSize: 0x28 }
  - { offsetInCU: 0x6A5F, offset: 0x6A5F, size: 0x8, addend: 0x0, symName: __ZNSt3__121__libcpp_operator_newB8ue170006IJmEEEPvDpT_, symObjAddr: 0xD8C, symBinAddr: 0x100004208, symSize: 0x24 }
  - { offsetInCU: 0x6A98, offset: 0x6A98, size: 0x8, addend: 0x0, symName: __ZNSt3__112__to_addressB8ue170006I7StudentEEPT_S3_, symObjAddr: 0x11D8, symBinAddr: 0x100004654, symSize: 0x14 }
  - { offsetInCU: 0x6ACD, offset: 0x6ACD, size: 0x8, addend: 0x0, symName: __ZNSt3__119__libcpp_deallocateB8ue170006EPvmm, symObjAddr: 0x12F4, symBinAddr: 0x100004770, symSize: 0x30 }
  - { offsetInCU: 0x6B15, offset: 0x6B15, size: 0x8, addend: 0x0, symName: __ZNSt3__127__do_deallocate_handle_sizeB8ue170006IJEEEvPvmDpT_, symObjAddr: 0x1324, symBinAddr: 0x1000047A0, symSize: 0x28 }
  - { offsetInCU: 0x6B53, offset: 0x6B53, size: 0x8, addend: 0x0, symName: __ZNSt3__124__libcpp_operator_deleteB8ue170006IJPvEEEvDpT_, symObjAddr: 0x134C, symBinAddr: 0x1000047C8, symSize: 0x24 }
  - { offsetInCU: 0x6B88, offset: 0x6B88, size: 0x8, addend: 0x0, symName: __ZNSt3__19push_heapB8ue170006INS_11__wrap_iterIP7StudentEE10comparatorEEvT_S6_T0_, symObjAddr: 0x1614, symBinAddr: 0x100004A90, symSize: 0x40 }
  - { offsetInCU: 0x6BDE, offset: 0x6BDE, size: 0x8, addend: 0x0, symName: __ZNSt3__13maxB8ue170006ImEERKT_S3_S3_, symObjAddr: 0x1CFC, symBinAddr: 0x100005178, symSize: 0x2C }
  - { offsetInCU: 0x6C21, offset: 0x6C21, size: 0x8, addend: 0x0, symName: __ZNSt3__13minB8ue170006ImEERKT_S3_S3_, symObjAddr: 0x1D28, symBinAddr: 0x1000051A4, symSize: 0x2C }
  - { offsetInCU: 0x6E65, offset: 0x6E65, size: 0x8, addend: 0x0, symName: __ZNSt3__13minB8ue170006ImNS_6__lessIvvEEEERKT_S5_S5_T0_, symObjAddr: 0x1DB4, symBinAddr: 0x100005230, symSize: 0x54 }
  - { offsetInCU: 0x6F04, offset: 0x6F04, size: 0x8, addend: 0x0, symName: __ZNSt3__120__throw_length_errorB8ue170006EPKc, symObjAddr: 0x1E90, symBinAddr: 0x10000530C, symSize: 0x64 }
  - { offsetInCU: 0x6F2E, offset: 0x6F2E, size: 0x8, addend: 0x0, symName: __ZNSt3__13maxB8ue170006ImNS_6__lessIvvEEEERKT_S5_S5_T0_, symObjAddr: 0x1F74, symBinAddr: 0x1000053F0, symSize: 0x54 }
  - { offsetInCU: 0x6F88, offset: 0x6F88, size: 0x8, addend: 0x0, symName: __ZNSt3__119__allocate_at_leastB8ue170006INS_9allocatorI7StudentEEEENS_19__allocation_resultINS_16allocator_traitsIT_E7pointerEEERS6_m, symObjAddr: 0x20D8, symBinAddr: 0x100005554, symSize: 0x40 }
  - { offsetInCU: 0x6FCB, offset: 0x6FCB, size: 0x8, addend: 0x0, symName: __ZNSt3__142__uninitialized_allocator_move_if_noexceptB8ue170006INS_9allocatorI7StudentEENS_16reverse_iteratorIPS2_EES6_S6_EET2_RT_T0_T1_S7_, symObjAddr: 0x22B8, symBinAddr: 0x100005734, symSize: 0x134 }
  - { offsetInCU: 0x706B, offset: 0x706B, size: 0x8, addend: 0x0, symName: __ZNSt3__14swapB8ue170006IP7StudentEEvRT_S4_, symObjAddr: 0x2438, symBinAddr: 0x1000058B4, symSize: 0x3C }
  - { offsetInCU: 0x70BC, offset: 0x70BC, size: 0x8, addend: 0x0, symName: __ZNSt3__122__make_exception_guardB8ue170006INS_29_AllocatorDestroyRangeReverseINS_9allocatorI7StudentEENS_16reverse_iteratorIPS3_EEEEEENS_28__exception_guard_exceptionsIT_EESA_, symObjAddr: 0x2520, symBinAddr: 0x10000599C, symSize: 0x4C }
  - { offsetInCU: 0x70F2, offset: 0x70F2, size: 0x8, addend: 0x0, symName: __ZNSt3__1neB8ue170006IP7StudentS2_EEbRKNS_16reverse_iteratorIT_EERKNS3_IT0_EE, symObjAddr: 0x25B0, symBinAddr: 0x100005A2C, symSize: 0x48 }
  - { offsetInCU: 0x713E, offset: 0x713E, size: 0x8, addend: 0x0, symName: __ZNSt3__112__to_addressB8ue170006INS_16reverse_iteratorIP7StudentEEvEEu7__decayIDTclsr19__to_address_helperIT_EE6__callclsr3stdE7declvalIRKS5_EEEEES7_, symObjAddr: 0x25F8, symBinAddr: 0x100005A74, symSize: 0x24 }
  - { offsetInCU: 0x719D, offset: 0x719D, size: 0x8, addend: 0x0, symName: __ZNSt3__119__allocator_destroyB8ue170006INS_9allocatorI7StudentEENS_16reverse_iteratorINS4_IPS2_EEEES7_EEvRT_T0_T1_, symObjAddr: 0x28B4, symBinAddr: 0x100005D30, symSize: 0x70 }
  - { offsetInCU: 0x7202, offset: 0x7202, size: 0x8, addend: 0x0, symName: __ZNSt3__1neB8ue170006INS_16reverse_iteratorIP7StudentEES4_EEbRKNS1_IT_EERKNS1_IT0_EE, symObjAddr: 0x2960, symBinAddr: 0x100005DDC, symSize: 0x60 }
  - { offsetInCU: 0x724E, offset: 0x724E, size: 0x8, addend: 0x0, symName: __ZNSt3__112__to_addressB8ue170006INS_16reverse_iteratorINS1_IP7StudentEEEEvEEu7__decayIDTclsr19__to_address_helperIT_EE6__callclsr3stdE7declvalIRKS6_EEEEES8_, symObjAddr: 0x29C0, symBinAddr: 0x100005E3C, symSize: 0x24 }
  - { offsetInCU: 0x72AD, offset: 0x72AD, size: 0x8, addend: 0x0, symName: __ZNSt3__111__push_heapB8ue170006INS_17_ClassicAlgPolicyENS_11__wrap_iterIP7StudentEE10comparatorEEvT0_S7_RT1_, symObjAddr: 0x2D44, symBinAddr: 0x1000061C0, symSize: 0x5C }
  - { offsetInCU: 0x731A, offset: 0x731A, size: 0x8, addend: 0x0, symName: __ZNSt3__1miB8ue170006IP7StudentS2_EENS_11__wrap_iterIT_E15difference_typeERKS5_RKNS3_IT0_EE, symObjAddr: 0x2DA0, symBinAddr: 0x10000621C, symSize: 0x48 }
  - { offsetInCU: 0x7366, offset: 0x7366, size: 0x8, addend: 0x0, symName: __ZNSt3__19__sift_upB8ue170006INS_17_ClassicAlgPolicyER10comparatorNS_11__wrap_iterIP7StudentEEEEvT1_S8_OT0_NS_15iterator_traitsIS8_E15difference_typeE, symObjAddr: 0x2DE8, symBinAddr: 0x100006264, symSize: 0x29C }
  - { offsetInCU: 0x747A, offset: 0x747A, size: 0x8, addend: 0x0, symName: __ZNSt3__118__constexpr_strlenB8ue170006EPKc, symObjAddr: 0x3304, symBinAddr: 0x100006780, symSize: 0x24 }
  - { offsetInCU: 0x74A6, offset: 0x74A6, size: 0x8, addend: 0x0, symName: __ZNSt3__116__pad_and_outputB8ue170006IcNS_11char_traitsIcEEEENS_19ostreambuf_iteratorIT_T0_EES6_PKS4_S8_S8_RNS_8ios_baseES4_, symObjAddr: 0x3550, symBinAddr: 0x1000069CC, symSize: 0x248 }
  - { offsetInCU: 0x7575, offset: 0x7575, size: 0x8, addend: 0x0, symName: __ZNSt3__112__to_addressB8ue170006IKcEEPT_S3_, symObjAddr: 0x39C8, symBinAddr: 0x100006E44, symSize: 0x14 }
  - { offsetInCU: 0x75DD, offset: 0x75DD, size: 0x8, addend: 0x0, symName: __ZNSt3__19use_facetB8ue170006INS_5ctypeIcEEEERKT_RKNS_6localeE, symObjAddr: 0x3CA0, symBinAddr: 0x10000711C, symSize: 0x2C }
  - { offsetInCU: 0x7AAA, offset: 0x7AAA, size: 0x8, addend: 0x0, symName: __ZNSt3__18pop_heapB8ue170006INS_11__wrap_iterIP7StudentEE10comparatorEEvT_S6_T0_, symObjAddr: 0x3DE8, symBinAddr: 0x100007264, symSize: 0x58 }
  - { offsetInCU: 0x7B0E, offset: 0x7B0E, size: 0x8, addend: 0x0, symName: __ZNSt3__110__pop_heapB8ue170006INS_17_ClassicAlgPolicyE10comparatorNS_11__wrap_iterIP7StudentEEEEvT1_S7_RT0_NS_15iterator_traitsIS7_E15difference_typeE, symObjAddr: 0x3E6C, symBinAddr: 0x1000072E8, symSize: 0x174 }
  - { offsetInCU: 0x7BB8, offset: 0x7BB8, size: 0x8, addend: 0x0, symName: __ZNSt3__1eqB8ue170006IP7StudentEEbRKNS_11__wrap_iterIT_EES7_, symObjAddr: 0x4200, symBinAddr: 0x10000767C, symSize: 0x48 }
  - { offsetInCU: 0x7DBE, offset: 0x7DBE, size: 0x8, addend: 0x0, symName: __ZSt28__throw_bad_array_new_lengthB8ue170006v, symObjAddr: 0xD1C, symBinAddr: 0x100004198, symSize: 0x34 }
  - { offsetInCU: 0x82DF, offset: 0x82DF, size: 0x8, addend: 0x0, symName: __ZNSt3__16vectorI7StudentNS_9allocatorIS1_EEE26__swap_out_circular_bufferERNS_14__split_bufferIS1_RS3_EE, symObjAddr: 0x1B30, symBinAddr: 0x100004FAC, symSize: 0x110 }
  - { offsetInCU: 0xA714, offset: 0xA714, size: 0x8, addend: 0x0, symName: _main, symObjAddr: 0x0, symBinAddr: 0x10000347C, symSize: 0x4B8 }
  - { offsetInCU: 0xA7A3, offset: 0xA7A3, size: 0x8, addend: 0x0, symName: __ZNSt3__114priority_queueI7StudentNS_6vectorIS1_NS_9allocatorIS1_EEEE10comparatorEC1B8ue170006Ev, symObjAddr: 0x4B8, symBinAddr: 0x100003934, symSize: 0x2C }
  - { offsetInCU: 0xA7CB, offset: 0xA7CB, size: 0x8, addend: 0x0, symName: __ZNSt3__114priority_queueI7StudentNS_6vectorIS1_NS_9allocatorIS1_EEEE10comparatorE4pushERKS1_, symObjAddr: 0x4E4, symBinAddr: 0x100003960, symSize: 0x58 }
  - { offsetInCU: 0xA806, offset: 0xA806, size: 0x8, addend: 0x0, symName: __ZNSt3__112basic_stringIcNS_11char_traitsIcEENS_9allocatorIcEEEC1B8ue170006ILi0EEEPKc, symObjAddr: 0x53C, symBinAddr: 0x1000039B8, symSize: 0x34 }
  - { offsetInCU: 0xA844, offset: 0xA844, size: 0x8, addend: 0x0, symName: __ZN7StudentC1EiNSt3__112basic_stringIcNS0_11char_traitsIcEENS0_9allocatorIcEEEE, symObjAddr: 0x570, symBinAddr: 0x1000039EC, symSize: 0x3C }
  - { offsetInCU: 0xA88A, offset: 0xA88A, size: 0x8, addend: 0x0, symName: __ZN7StudentD1Ev, symObjAddr: 0x5AC, symBinAddr: 0x100003A28, symSize: 0x2C }
  - { offsetInCU: 0xA8B5, offset: 0xA8B5, size: 0x8, addend: 0x0, symName: __ZNKSt3__114priority_queueI7StudentNS_6vectorIS1_NS_9allocatorIS1_EEEE10comparatorE3topB8ue170006Ev, symObjAddr: 0x678, symBinAddr: 0x100003AF4, symSize: 0x24 }
  - { offsetInCU: 0xA8DA, offset: 0xA8DA, size: 0x8, addend: 0x0, symName: __ZNSt3__113basic_ostreamIcNS_11char_traitsIcEEElsB8ue170006EPFRS3_S4_E, symObjAddr: 0x69C, symBinAddr: 0x100003B18, symSize: 0x2C }
  - { offsetInCU: 0xA90C, offset: 0xA90C, size: 0x8, addend: 0x0, symName: __ZNSt3__114priority_queueI7StudentNS_6vectorIS1_NS_9allocatorIS1_EEEE10comparatorE3popEv, symObjAddr: 0x720, symBinAddr: 0x100003B9C, symSize: 0x50 }
  - { offsetInCU: 0xA933, offset: 0xA933, size: 0x8, addend: 0x0, symName: __ZNSt3__114priority_queueI7StudentNS_6vectorIS1_NS_9allocatorIS1_EEEE10comparatorED1Ev, symObjAddr: 0x770, symBinAddr: 0x100003BEC, symSize: 0x2C }
  - { offsetInCU: 0xA95F, offset: 0xA95F, size: 0x8, addend: 0x0, symName: __ZN7StudentC2EiNSt3__112basic_stringIcNS0_11char_traitsIcEENS0_9allocatorIcEEEE, symObjAddr: 0x79C, symBinAddr: 0x100003C18, symSize: 0x88 }
  - { offsetInCU: 0xA9A5, offset: 0xA9A5, size: 0x8, addend: 0x0, symName: __ZNSt3__112basic_stringIcNS_11char_traitsIcEENS_9allocatorIcEEEC1B8ue170006Ev, symObjAddr: 0x824, symBinAddr: 0x100003CA0, symSize: 0x2C }
  - { offsetInCU: 0xA9CE, offset: 0xA9CE, size: 0x8, addend: 0x0, symName: __ZNSt3__112basic_stringIcNS_11char_traitsIcEENS_9allocatorIcEEEC2B8ue170006Ev, symObjAddr: 0x850, symBinAddr: 0x100003CCC, symSize: 0x3C }
  - { offsetInCU: 0xA9FC, offset: 0xA9FC, size: 0x8, addend: 0x0, symName: __ZNSt3__117__compressed_pairINS_12basic_stringIcNS_11char_traitsIcEENS_9allocatorIcEEE5__repES5_EC1B8ue170006INS_18__default_init_tagESA_EEOT_OT0_, symObjAddr: 0x88C, symBinAddr: 0x100003D08, symSize: 0x3C }
  - { offsetInCU: 0xAA53, offset: 0xAA53, size: 0x8, addend: 0x0, symName: __ZNSt3__112basic_stringIcNS_11char_traitsIcEENS_9allocatorIcEEE14__default_initB8ue170006Ev, symObjAddr: 0x8C8, symBinAddr: 0x100003D44, symSize: 0xB0 }
  - { offsetInCU: 0xAAA5, offset: 0xAAA5, size: 0x8, addend: 0x0, symName: __ZNSt3__117__compressed_pairINS_12basic_stringIcNS_11char_traitsIcEENS_9allocatorIcEEE5__repES5_EC2B8ue170006INS_18__default_init_tagESA_EEOT_OT0_, symObjAddr: 0x978, symBinAddr: 0x100003DF4, symSize: 0x3C }
  - { offsetInCU: 0xAAFC, offset: 0xAAFC, size: 0x8, addend: 0x0, symName: __ZNSt3__122__compressed_pair_elemINS_12basic_stringIcNS_11char_traitsIcEENS_9allocatorIcEEE5__repELi0ELb0EEC2B8ue170006ENS_18__default_init_tagE, symObjAddr: 0x9B4, symBinAddr: 0x100003E30, symSize: 0x14 }
  - { offsetInCU: 0xAB30, offset: 0xAB30, size: 0x8, addend: 0x0, symName: __ZNSt3__122__compressed_pair_elemINS_9allocatorIcEELi1ELb1EEC2B8ue170006ENS_18__default_init_tagE, symObjAddr: 0x9C8, symBinAddr: 0x100003E44, symSize: 0x2C }
  - { offsetInCU: 0xAB64, offset: 0xAB64, size: 0x8, addend: 0x0, symName: __ZNSt3__19allocatorIcEC2B8ue170006Ev, symObjAddr: 0x9F4, symBinAddr: 0x100003E70, symSize: 0x2C }
  - { offsetInCU: 0xAB8D, offset: 0xAB8D, size: 0x8, addend: 0x0, symName: __ZNSt3__116__non_trivial_ifILb1ENS_9allocatorIcEEEC2B8ue170006Ev, symObjAddr: 0xA20, symBinAddr: 0x100003E9C, symSize: 0x14 }
  - { offsetInCU: 0xABB6, offset: 0xABB6, size: 0x8, addend: 0x0, symName: __ZNSt3__117__compressed_pairINS_12basic_stringIcNS_11char_traitsIcEENS_9allocatorIcEEE5__repES5_E5firstB8ue170006Ev, symObjAddr: 0xA34, symBinAddr: 0x100003EB0, symSize: 0x24 }
  - { offsetInCU: 0xABDB, offset: 0xABDB, size: 0x8, addend: 0x0, symName: __ZNSt3__112basic_stringIcNS_11char_traitsIcEENS_9allocatorIcEEE11__recommendB8ue170006Em, symObjAddr: 0xA64, symBinAddr: 0x100003EE0, symSize: 0x9C }
  - { offsetInCU: 0xAC0E, offset: 0xAC0E, size: 0x8, addend: 0x0, symName: __ZNSt3__116allocator_traitsINS_9allocatorIcEEE8allocateB8ue170006ERS2_m, symObjAddr: 0xB00, symBinAddr: 0x100003F7C, symSize: 0x2C }
  - { offsetInCU: 0xAC41, offset: 0xAC41, size: 0x8, addend: 0x0, symName: __ZNSt3__112basic_stringIcNS_11char_traitsIcEENS_9allocatorIcEEE7__allocB8ue170006Ev, symObjAddr: 0xB2C, symBinAddr: 0x100003FA8, symSize: 0x24 }
  - { offsetInCU: 0xAC66, offset: 0xAC66, size: 0x8, addend: 0x0, symName: __ZNSt3__112basic_stringIcNS_11char_traitsIcEENS_9allocatorIcEEE16__begin_lifetimeB8ue170006EPcm, symObjAddr: 0xB50, symBinAddr: 0x100003FCC, symSize: 0x14 }
  - { offsetInCU: 0xAC99, offset: 0xAC99, size: 0x8, addend: 0x0, symName: __ZNSt3__112basic_stringIcNS_11char_traitsIcEENS_9allocatorIcEEE18__set_long_pointerB8ue170006EPc, symObjAddr: 0xB64, symBinAddr: 0x100003FE0, symSize: 0x38 }
  - { offsetInCU: 0xACCD, offset: 0xACCD, size: 0x8, addend: 0x0, symName: __ZNSt3__112basic_stringIcNS_11char_traitsIcEENS_9allocatorIcEEE14__set_long_capB8ue170006Em, symObjAddr: 0xB9C, symBinAddr: 0x100004018, symSize: 0x70 }
  - { offsetInCU: 0xAD01, offset: 0xAD01, size: 0x8, addend: 0x0, symName: __ZNSt3__112basic_stringIcNS_11char_traitsIcEENS_9allocatorIcEEE15__set_long_sizeB8ue170006Em, symObjAddr: 0xC0C, symBinAddr: 0x100004088, symSize: 0x38 }
  - { offsetInCU: 0xAD35, offset: 0xAD35, size: 0x8, addend: 0x0, symName: __ZNSt3__122__compressed_pair_elemINS_12basic_stringIcNS_11char_traitsIcEENS_9allocatorIcEEE5__repELi0ELb0EE5__getB8ue170006Ev, symObjAddr: 0xC44, symBinAddr: 0x1000040C0, symSize: 0x14 }
  - { offsetInCU: 0xAD5A, offset: 0xAD5A, size: 0x8, addend: 0x0, symName: __ZNSt3__112basic_stringIcNS_11char_traitsIcEENS_9allocatorIcEEE10__align_itB8ue170006ILm16EEEmm, symObjAddr: 0xC58, symBinAddr: 0x1000040D4, symSize: 0x1C }
  - { offsetInCU: 0xAD88, offset: 0xAD88, size: 0x8, addend: 0x0, symName: __ZNSt3__19allocatorIcE8allocateB8ue170006Em, symObjAddr: 0xC74, symBinAddr: 0x1000040F0, symSize: 0x84 }
  - { offsetInCU: 0xADC5, offset: 0xADC5, size: 0x8, addend: 0x0, symName: __ZNSt3__116allocator_traitsINS_9allocatorIcEEE8max_sizeB8ue170006IS2_vEEmRKS2_, symObjAddr: 0xCF8, symBinAddr: 0x100004174, symSize: 0x24 }
  - { offsetInCU: 0xADF3, offset: 0xADF3, size: 0x8, addend: 0x0, symName: __ZNKSt3__19allocatorIcE8max_sizeB8ue170006Ev, symObjAddr: 0xD78, symBinAddr: 0x1000041F4, symSize: 0x14 }
  - { offsetInCU: 0xAE18, offset: 0xAE18, size: 0x8, addend: 0x0, symName: __ZNSt3__117__compressed_pairINS_12basic_stringIcNS_11char_traitsIcEENS_9allocatorIcEEE5__repES5_E6secondB8ue170006Ev, symObjAddr: 0xDB0, symBinAddr: 0x10000422C, symSize: 0x24 }
  - { offsetInCU: 0xAE3D, offset: 0xAE3D, size: 0x8, addend: 0x0, symName: __ZNSt3__122__compressed_pair_elemINS_9allocatorIcEELi1ELb1EE5__getB8ue170006Ev, symObjAddr: 0xDD4, symBinAddr: 0x100004250, symSize: 0x14 }
  - { offsetInCU: 0xAE62, offset: 0xAE62, size: 0x8, addend: 0x0, symName: __ZN7StudentD2Ev, symObjAddr: 0xDE8, symBinAddr: 0x100004264, symSize: 0x30 }
  - { offsetInCU: 0xAE8D, offset: 0xAE8D, size: 0x8, addend: 0x0, symName: __ZNSt3__114priority_queueI7StudentNS_6vectorIS1_NS_9allocatorIS1_EEEE10comparatorED2Ev, symObjAddr: 0xE18, symBinAddr: 0x100004294, symSize: 0x2C }
  - { offsetInCU: 0xAEB9, offset: 0xAEB9, size: 0x8, addend: 0x0, symName: __ZNSt3__16vectorI7StudentNS_9allocatorIS1_EEED1B8ue170006Ev, symObjAddr: 0xE44, symBinAddr: 0x1000042C0, symSize: 0x2C }
  - { offsetInCU: 0xAEE2, offset: 0xAEE2, size: 0x8, addend: 0x0, symName: __ZNSt3__16vectorI7StudentNS_9allocatorIS1_EEED2B8ue170006Ev, symObjAddr: 0xE70, symBinAddr: 0x1000042EC, symSize: 0x3C }
  - { offsetInCU: 0xAF0B, offset: 0xAF0B, size: 0x8, addend: 0x0, symName: __ZNSt3__16vectorI7StudentNS_9allocatorIS1_EEE16__destroy_vectorC1B8ue170006ERS4_, symObjAddr: 0xEAC, symBinAddr: 0x100004328, symSize: 0x34 }
  - { offsetInCU: 0xAF43, offset: 0xAF43, size: 0x8, addend: 0x0, symName: __ZNSt3__16vectorI7StudentNS_9allocatorIS1_EEE16__destroy_vectorclB8ue170006Ev, symObjAddr: 0xEE0, symBinAddr: 0x10000435C, symSize: 0x90 }
  - { offsetInCU: 0xAF68, offset: 0xAF68, size: 0x8, addend: 0x0, symName: __ZNSt3__16vectorI7StudentNS_9allocatorIS1_EEE16__destroy_vectorC2B8ue170006ERS4_, symObjAddr: 0xF70, symBinAddr: 0x1000043EC, symSize: 0x20 }
  - { offsetInCU: 0xAFA0, offset: 0xAFA0, size: 0x8, addend: 0x0, symName: __ZNSt3__16vectorI7StudentNS_9allocatorIS1_EEE7__clearB8ue170006Ev, symObjAddr: 0xF90, symBinAddr: 0x10000440C, symSize: 0x28 }
  - { offsetInCU: 0xAFC5, offset: 0xAFC5, size: 0x8, addend: 0x0, symName: __ZNKSt3__16vectorI7StudentNS_9allocatorIS1_EEE17__annotate_deleteB8ue170006Ev, symObjAddr: 0xFB8, symBinAddr: 0x100004434, symSize: 0xB8 }
  - { offsetInCU: 0xAFEA, offset: 0xAFEA, size: 0x8, addend: 0x0, symName: __ZNSt3__116allocator_traitsINS_9allocatorI7StudentEEE10deallocateB8ue170006ERS3_PS2_m, symObjAddr: 0x1070, symBinAddr: 0x1000044EC, symSize: 0x34 }
  - { offsetInCU: 0xB02C, offset: 0xB02C, size: 0x8, addend: 0x0, symName: __ZNSt3__16vectorI7StudentNS_9allocatorIS1_EEE7__allocB8ue170006Ev, symObjAddr: 0x10A4, symBinAddr: 0x100004520, symSize: 0x28 }
  - { offsetInCU: 0xB051, offset: 0xB051, size: 0x8, addend: 0x0, symName: __ZNKSt3__16vectorI7StudentNS_9allocatorIS1_EEE8capacityB8ue170006Ev, symObjAddr: 0x10CC, symBinAddr: 0x100004548, symSize: 0x40 }
  - { offsetInCU: 0xB076, offset: 0xB076, size: 0x8, addend: 0x0, symName: __ZNSt3__16vectorI7StudentNS_9allocatorIS1_EEE22__base_destruct_at_endB8ue170006EPS1_, symObjAddr: 0x110C, symBinAddr: 0x100004588, symSize: 0xA0 }
  - { offsetInCU: 0xB0B9, offset: 0xB0B9, size: 0x8, addend: 0x0, symName: __ZNSt3__116allocator_traitsINS_9allocatorI7StudentEEE7destroyB8ue170006IS2_vEEvRS3_PT_, symObjAddr: 0x11AC, symBinAddr: 0x100004628, symSize: 0x2C }
  - { offsetInCU: 0xB0F6, offset: 0xB0F6, size: 0x8, addend: 0x0, symName: __ZNSt3__19allocatorI7StudentE7destroyB8ue170006EPS1_, symObjAddr: 0x11EC, symBinAddr: 0x100004668, symSize: 0x28 }
  - { offsetInCU: 0xB129, offset: 0xB129, size: 0x8, addend: 0x0, symName: __ZNKSt3__16vectorI7StudentNS_9allocatorIS1_EEE31__annotate_contiguous_containerB8ue170006EPKvS6_S6_S6_, symObjAddr: 0x1214, symBinAddr: 0x100004690, symSize: 0x20 }
  - { offsetInCU: 0xB17E, offset: 0xB17E, size: 0x8, addend: 0x0, symName: __ZNKSt3__16vectorI7StudentNS_9allocatorIS1_EEE4dataB8ue170006Ev, symObjAddr: 0x1234, symBinAddr: 0x1000046B0, symSize: 0x28 }
  - { offsetInCU: 0xB1A3, offset: 0xB1A3, size: 0x8, addend: 0x0, symName: __ZNKSt3__16vectorI7StudentNS_9allocatorIS1_EEE4sizeB8ue170006Ev, symObjAddr: 0x125C, symBinAddr: 0x1000046D8, symSize: 0x28 }
  - { offsetInCU: 0xB1C8, offset: 0xB1C8, size: 0x8, addend: 0x0, symName: __ZNSt3__19allocatorI7StudentE10deallocateB8ue170006EPS1_m, symObjAddr: 0x1284, symBinAddr: 0x100004700, symSize: 0x70 }
  - { offsetInCU: 0xB209, offset: 0xB209, size: 0x8, addend: 0x0, symName: __ZNSt3__117__compressed_pairIP7StudentNS_9allocatorIS1_EEE6secondB8ue170006Ev, symObjAddr: 0x1370, symBinAddr: 0x1000047EC, symSize: 0x24 }
  - { offsetInCU: 0xB22E, offset: 0xB22E, size: 0x8, addend: 0x0, symName: __ZNSt3__122__compressed_pair_elemINS_9allocatorI7StudentEELi1ELb1EE5__getB8ue170006Ev, symObjAddr: 0x1394, symBinAddr: 0x100004810, symSize: 0x14 }
  - { offsetInCU: 0xB253, offset: 0xB253, size: 0x8, addend: 0x0, symName: __ZNKSt3__16vectorI7StudentNS_9allocatorIS1_EEE9__end_capB8ue170006Ev, symObjAddr: 0x13A8, symBinAddr: 0x100004824, symSize: 0x28 }
  - { offsetInCU: 0xB278, offset: 0xB278, size: 0x8, addend: 0x0, symName: __ZNKSt3__117__compressed_pairIP7StudentNS_9allocatorIS1_EEE5firstB8ue170006Ev, symObjAddr: 0x13D0, symBinAddr: 0x10000484C, symSize: 0x24 }
  - { offsetInCU: 0xB29D, offset: 0xB29D, size: 0x8, addend: 0x0, symName: __ZNKSt3__122__compressed_pair_elemIP7StudentLi0ELb0EE5__getB8ue170006Ev, symObjAddr: 0x13F4, symBinAddr: 0x100004870, symSize: 0x14 }
  - { offsetInCU: 0xB2C2, offset: 0xB2C2, size: 0x8, addend: 0x0, symName: __ZNSt3__114priority_queueI7StudentNS_6vectorIS1_NS_9allocatorIS1_EEEE10comparatorEC2B8ue170006Ev, symObjAddr: 0x1408, symBinAddr: 0x100004884, symSize: 0x2C }
  - { offsetInCU: 0xB2EB, offset: 0xB2EB, size: 0x8, addend: 0x0, symName: __ZNSt3__16vectorI7StudentNS_9allocatorIS1_EEEC1B8ue170006Ev, symObjAddr: 0x1434, symBinAddr: 0x1000048B0, symSize: 0x2C }
  - { offsetInCU: 0xB314, offset: 0xB314, size: 0x8, addend: 0x0, symName: __ZNSt3__16vectorI7StudentNS_9allocatorIS1_EEEC2B8ue170006Ev, symObjAddr: 0x1460, symBinAddr: 0x1000048DC, symSize: 0x44 }
  - { offsetInCU: 0xB342, offset: 0xB342, size: 0x8, addend: 0x0, symName: __ZNSt3__117__compressed_pairIP7StudentNS_9allocatorIS1_EEEC1B8ue170006IDnNS_18__default_init_tagEEEOT_OT0_, symObjAddr: 0x14A4, symBinAddr: 0x100004920, symSize: 0x3C }
  - { offsetInCU: 0xB399, offset: 0xB399, size: 0x8, addend: 0x0, symName: __ZNSt3__117__compressed_pairIP7StudentNS_9allocatorIS1_EEEC2B8ue170006IDnNS_18__default_init_tagEEEOT_OT0_, symObjAddr: 0x14E0, symBinAddr: 0x10000495C, symSize: 0x40 }
  - { offsetInCU: 0xB3F0, offset: 0xB3F0, size: 0x8, addend: 0x0, symName: __ZNSt3__122__compressed_pair_elemIP7StudentLi0ELb0EEC2B8ue170006IDnvEEOT_, symObjAddr: 0x1520, symBinAddr: 0x10000499C, symSize: 0x1C }
  - { offsetInCU: 0xB431, offset: 0xB431, size: 0x8, addend: 0x0, symName: __ZNSt3__122__compressed_pair_elemINS_9allocatorI7StudentEELi1ELb1EEC2B8ue170006ENS_18__default_init_tagE, symObjAddr: 0x153C, symBinAddr: 0x1000049B8, symSize: 0x2C }
  - { offsetInCU: 0xB465, offset: 0xB465, size: 0x8, addend: 0x0, symName: __ZNSt3__19allocatorI7StudentEC2B8ue170006Ev, symObjAddr: 0x1568, symBinAddr: 0x1000049E4, symSize: 0x2C }
  - { offsetInCU: 0xB48E, offset: 0xB48E, size: 0x8, addend: 0x0, symName: __ZNSt3__116__non_trivial_ifILb1ENS_9allocatorI7StudentEEEC2B8ue170006Ev, symObjAddr: 0x1594, symBinAddr: 0x100004A10, symSize: 0x14 }
  - { offsetInCU: 0xB4B6, offset: 0xB4B6, size: 0x8, addend: 0x0, symName: __ZNSt3__16vectorI7StudentNS_9allocatorIS1_EEE9push_backB8ue170006ERKS1_, symObjAddr: 0x15A8, symBinAddr: 0x100004A24, symSize: 0x6C }
  - { offsetInCU: 0xB4EB, offset: 0xB4EB, size: 0x8, addend: 0x0, symName: __ZNSt3__16vectorI7StudentNS_9allocatorIS1_EEE5beginB8ue170006Ev, symObjAddr: 0x1654, symBinAddr: 0x100004AD0, symSize: 0x30 }
  - { offsetInCU: 0xB511, offset: 0xB511, size: 0x8, addend: 0x0, symName: __ZNSt3__16vectorI7StudentNS_9allocatorIS1_EEE3endB8ue170006Ev, symObjAddr: 0x1684, symBinAddr: 0x100004B00, symSize: 0x30 }
  - { offsetInCU: 0xB538, offset: 0xB538, size: 0x8, addend: 0x0, symName: __ZNSt3__16vectorI7StudentNS_9allocatorIS1_EEE9__end_capB8ue170006Ev, symObjAddr: 0x16B4, symBinAddr: 0x100004B30, symSize: 0x28 }
  - { offsetInCU: 0xB55D, offset: 0xB55D, size: 0x8, addend: 0x0, symName: __ZNSt3__16vectorI7StudentNS_9allocatorIS1_EEE22__construct_one_at_endB8ue170006IJRKS1_EEEvDpOT_, symObjAddr: 0x16DC, symBinAddr: 0x100004B58, symSize: 0x98 }
  - { offsetInCU: 0xB5AA, offset: 0xB5AA, size: 0x8, addend: 0x0, symName: __ZNSt3__16vectorI7StudentNS_9allocatorIS1_EEE21__push_back_slow_pathIRKS1_EEvOT_, symObjAddr: 0x1774, symBinAddr: 0x100004BF0, symSize: 0xE0 }
  - { offsetInCU: 0xB607, offset: 0xB607, size: 0x8, addend: 0x0, symName: __ZNSt3__117__compressed_pairIP7StudentNS_9allocatorIS1_EEE5firstB8ue170006Ev, symObjAddr: 0x1854, symBinAddr: 0x100004CD0, symSize: 0x24 }
  - { offsetInCU: 0xB62C, offset: 0xB62C, size: 0x8, addend: 0x0, symName: __ZNSt3__122__compressed_pair_elemIP7StudentLi0ELb0EE5__getB8ue170006Ev, symObjAddr: 0x1878, symBinAddr: 0x100004CF4, symSize: 0x14 }
  - { offsetInCU: 0xB66A, offset: 0xB66A, size: 0x8, addend: 0x0, symName: __ZNSt3__16vectorI7StudentNS_9allocatorIS1_EEE21_ConstructTransactionC1B8ue170006ERS4_m, symObjAddr: 0x188C, symBinAddr: 0x100004D08, symSize: 0x3C }
  - { offsetInCU: 0xB6B1, offset: 0xB6B1, size: 0x8, addend: 0x0, symName: __ZNSt3__116allocator_traitsINS_9allocatorI7StudentEEE9constructB8ue170006IS2_JRKS2_EvEEvRS3_PT_DpOT0_, symObjAddr: 0x18C8, symBinAddr: 0x100004D44, symSize: 0x34 }
  - { offsetInCU: 0xB708, offset: 0xB708, size: 0x8, addend: 0x0, symName: __ZNSt3__16vectorI7StudentNS_9allocatorIS1_EEE21_ConstructTransactionD1B8ue170006Ev, symObjAddr: 0x18FC, symBinAddr: 0x100004D78, symSize: 0x2C }
  - { offsetInCU: 0xB731, offset: 0xB731, size: 0x8, addend: 0x0, symName: __ZNSt3__16vectorI7StudentNS_9allocatorIS1_EEE21_ConstructTransactionC2B8ue170006ERS4_m, symObjAddr: 0x1928, symBinAddr: 0x100004DA4, symSize: 0x44 }
  - { offsetInCU: 0xB778, offset: 0xB778, size: 0x8, addend: 0x0, symName: __ZNSt3__19allocatorI7StudentE9constructB8ue170006IS1_JRKS1_EEEvPT_DpOT0_, symObjAddr: 0x196C, symBinAddr: 0x100004DE8, symSize: 0x30 }
  - { offsetInCU: 0xB7CD, offset: 0xB7CD, size: 0x8, addend: 0x0, symName: __ZN7StudentC1ERKS_, symObjAddr: 0x199C, symBinAddr: 0x100004E18, symSize: 0x34 }
  - { offsetInCU: 0xB801, offset: 0xB801, size: 0x8, addend: 0x0, symName: __ZN7StudentC2ERKS_, symObjAddr: 0x19D0, symBinAddr: 0x100004E4C, symSize: 0x48 }
  - { offsetInCU: 0xB835, offset: 0xB835, size: 0x8, addend: 0x0, symName: __ZNSt3__16vectorI7StudentNS_9allocatorIS1_EEE21_ConstructTransactionD2B8ue170006Ev, symObjAddr: 0x1A18, symBinAddr: 0x100004E94, symSize: 0x20 }
  - { offsetInCU: 0xB85D, offset: 0xB85D, size: 0x8, addend: 0x0, symName: __ZNKSt3__16vectorI7StudentNS_9allocatorIS1_EEE11__recommendB8ue170006Em, symObjAddr: 0x1A38, symBinAddr: 0x100004EB4, symSize: 0xB4 }
  - { offsetInCU: 0xB8B1, offset: 0xB8B1, size: 0x8, addend: 0x0, symName: __ZNSt3__114__split_bufferI7StudentRNS_9allocatorIS1_EEEC1EmmS4_, symObjAddr: 0x1AEC, symBinAddr: 0x100004F68, symSize: 0x44 }
  - { offsetInCU: 0xB906, offset: 0xB906, size: 0x8, addend: 0x0, symName: __ZNSt3__114__split_bufferI7StudentRNS_9allocatorIS1_EEED1Ev, symObjAddr: 0x1C40, symBinAddr: 0x1000050BC, symSize: 0x2C }
  - { offsetInCU: 0xB930, offset: 0xB930, size: 0x8, addend: 0x0, symName: __ZNKSt3__16vectorI7StudentNS_9allocatorIS1_EEE8max_sizeEv, symObjAddr: 0x1C6C, symBinAddr: 0x1000050E8, symSize: 0x74 }
  - { offsetInCU: 0xB957, offset: 0xB957, size: 0x8, addend: 0x0, symName: __ZNKSt3__16vectorI7StudentNS_9allocatorIS1_EEE20__throw_length_errorB8ue170006Ev, symObjAddr: 0x1CE0, symBinAddr: 0x10000515C, symSize: 0x1C }
  - { offsetInCU: 0xB986, offset: 0xB986, size: 0x8, addend: 0x0, symName: __ZNSt3__116allocator_traitsINS_9allocatorI7StudentEEE8max_sizeB8ue170006IS3_vEEmRKS3_, symObjAddr: 0x1D54, symBinAddr: 0x1000051D0, symSize: 0x24 }
  - { offsetInCU: 0xB9B4, offset: 0xB9B4, size: 0x8, addend: 0x0, symName: __ZNKSt3__16vectorI7StudentNS_9allocatorIS1_EEE7__allocB8ue170006Ev, symObjAddr: 0x1D78, symBinAddr: 0x1000051F4, symSize: 0x28 }
  - { offsetInCU: 0xB9D9, offset: 0xB9D9, size: 0x8, addend: 0x0, symName: __ZNSt3__114numeric_limitsIlE3maxB8ue170006Ev, symObjAddr: 0x1DA0, symBinAddr: 0x10000521C, symSize: 0x14 }
  - { offsetInCU: 0xBA01, offset: 0xBA01, size: 0x8, addend: 0x0, symName: __ZNKSt3__16__lessIvvEclB8ue170006ImmEEbRKT_RKT0_, symObjAddr: 0x1E08, symBinAddr: 0x100005284, symSize: 0x34 }
  - { offsetInCU: 0xBA54, offset: 0xBA54, size: 0x8, addend: 0x0, symName: __ZNKSt3__19allocatorI7StudentE8max_sizeB8ue170006Ev, symObjAddr: 0x1E3C, symBinAddr: 0x1000052B8, symSize: 0x14 }
  - { offsetInCU: 0xBA79, offset: 0xBA79, size: 0x8, addend: 0x0, symName: __ZNKSt3__117__compressed_pairIP7StudentNS_9allocatorIS1_EEE6secondB8ue170006Ev, symObjAddr: 0x1E50, symBinAddr: 0x1000052CC, symSize: 0x24 }
  - { offsetInCU: 0xBA9E, offset: 0xBA9E, size: 0x8, addend: 0x0, symName: __ZNKSt3__122__compressed_pair_elemINS_9allocatorI7StudentEELi1ELb1EE5__getB8ue170006Ev, symObjAddr: 0x1E74, symBinAddr: 0x1000052F0, symSize: 0x14 }
  - { offsetInCU: 0xBAC3, offset: 0xBAC3, size: 0x8, addend: 0x0, symName: __ZNSt3__123__libcpp_numeric_limitsIlLb1EE3maxB8ue170006Ev, symObjAddr: 0x1E88, symBinAddr: 0x100005304, symSize: 0x8 }
  - { offsetInCU: 0xBAD7, offset: 0xBAD7, size: 0x8, addend: 0x0, symName: __ZNSt12length_errorC1B8ue170006EPKc, symObjAddr: 0x1EF4, symBinAddr: 0x100005370, symSize: 0x34 }
  - { offsetInCU: 0xBB0E, offset: 0xBB0E, size: 0x8, addend: 0x0, symName: __ZNSt12length_errorC2B8ue170006EPKc, symObjAddr: 0x1F28, symBinAddr: 0x1000053A4, symSize: 0x4C }
  - { offsetInCU: 0xBB45, offset: 0xBB45, size: 0x8, addend: 0x0, symName: __ZNSt3__114__split_bufferI7StudentRNS_9allocatorIS1_EEEC2EmmS4_, symObjAddr: 0x1FC8, symBinAddr: 0x100005444, symSize: 0xD4 }
  - { offsetInCU: 0xBBB8, offset: 0xBBB8, size: 0x8, addend: 0x0, symName: __ZNSt3__117__compressed_pairIP7StudentRNS_9allocatorIS1_EEEC1B8ue170006IDnS5_EEOT_OT0_, symObjAddr: 0x209C, symBinAddr: 0x100005518, symSize: 0x3C }
  - { offsetInCU: 0xBC0F, offset: 0xBC0F, size: 0x8, addend: 0x0, symName: __ZNSt3__114__split_bufferI7StudentRNS_9allocatorIS1_EEE7__allocB8ue170006Ev, symObjAddr: 0x2118, symBinAddr: 0x100005594, symSize: 0x28 }
  - { offsetInCU: 0xBC34, offset: 0xBC34, size: 0x8, addend: 0x0, symName: __ZNSt3__114__split_bufferI7StudentRNS_9allocatorIS1_EEE9__end_capB8ue170006Ev, symObjAddr: 0x2140, symBinAddr: 0x1000055BC, symSize: 0x28 }
  - { offsetInCU: 0xBC59, offset: 0xBC59, size: 0x8, addend: 0x0, symName: __ZNSt3__117__compressed_pairIP7StudentRNS_9allocatorIS1_EEEC2B8ue170006IDnS5_EEOT_OT0_, symObjAddr: 0x2168, symBinAddr: 0x1000055E4, symSize: 0x48 }
  - { offsetInCU: 0xBCB0, offset: 0xBCB0, size: 0x8, addend: 0x0, symName: __ZNSt3__122__compressed_pair_elemIRNS_9allocatorI7StudentEELi1ELb0EEC2B8ue170006IS4_vEEOT_, symObjAddr: 0x21B0, symBinAddr: 0x10000562C, symSize: 0x20 }
  - { offsetInCU: 0xBCF1, offset: 0xBCF1, size: 0x8, addend: 0x0, symName: __ZNSt3__19allocatorI7StudentE8allocateB8ue170006Em, symObjAddr: 0x21D0, symBinAddr: 0x10000564C, symSize: 0x84 }
  - { offsetInCU: 0xBD24, offset: 0xBD24, size: 0x8, addend: 0x0, symName: __ZNSt3__117__compressed_pairIP7StudentRNS_9allocatorIS1_EEE6secondB8ue170006Ev, symObjAddr: 0x2254, symBinAddr: 0x1000056D0, symSize: 0x28 }
  - { offsetInCU: 0xBD49, offset: 0xBD49, size: 0x8, addend: 0x0, symName: __ZNSt3__122__compressed_pair_elemIRNS_9allocatorI7StudentEELi1ELb0EE5__getB8ue170006Ev, symObjAddr: 0x227C, symBinAddr: 0x1000056F8, symSize: 0x18 }
  - { offsetInCU: 0xBD6E, offset: 0xBD6E, size: 0x8, addend: 0x0, symName: __ZNSt3__117__compressed_pairIP7StudentRNS_9allocatorIS1_EEE5firstB8ue170006Ev, symObjAddr: 0x2294, symBinAddr: 0x100005710, symSize: 0x24 }
  - { offsetInCU: 0xBD93, offset: 0xBD93, size: 0x8, addend: 0x0, symName: __ZNSt3__116reverse_iteratorIP7StudentEC1B8ue170006ES2_, symObjAddr: 0x23EC, symBinAddr: 0x100005868, symSize: 0x34 }
  - { offsetInCU: 0xBDCA, offset: 0xBDCA, size: 0x8, addend: 0x0, symName: __ZNKSt3__116reverse_iteratorIP7StudentE4baseB8ue170006Ev, symObjAddr: 0x2420, symBinAddr: 0x10000589C, symSize: 0x18 }
  - { offsetInCU: 0xBDEF, offset: 0xBDEF, size: 0x8, addend: 0x0, symName: __ZNKSt3__16vectorI7StudentNS_9allocatorIS1_EEE14__annotate_newB8ue170006Em, symObjAddr: 0x2474, symBinAddr: 0x1000058F0, symSize: 0xAC }
  - { offsetInCU: 0xBE23, offset: 0xBE23, size: 0x8, addend: 0x0, symName: __ZNSt3__129_AllocatorDestroyRangeReverseINS_9allocatorI7StudentEENS_16reverse_iteratorIPS2_EEEC1B8ue170006ERS3_RS6_S9_, symObjAddr: 0x256C, symBinAddr: 0x1000059E8, symSize: 0x44 }
  - { offsetInCU: 0xBE79, offset: 0xBE79, size: 0x8, addend: 0x0, symName: __ZNKSt3__116reverse_iteratorIP7StudentEdeB8ue170006Ev, symObjAddr: 0x261C, symBinAddr: 0x100005A98, symSize: 0x28 }
  - { offsetInCU: 0xBEAC, offset: 0xBEAC, size: 0x8, addend: 0x0, symName: __ZNSt3__116reverse_iteratorIP7StudentEppB8ue170006Ev, symObjAddr: 0x2644, symBinAddr: 0x100005AC0, symSize: 0x20 }
  - { offsetInCU: 0xBED1, offset: 0xBED1, size: 0x8, addend: 0x0, symName: __ZNSt3__128__exception_guard_exceptionsINS_29_AllocatorDestroyRangeReverseINS_9allocatorI7StudentEENS_16reverse_iteratorIPS3_EEEEE10__completeB8ue170006Ev, symObjAddr: 0x2664, symBinAddr: 0x100005AE0, symSize: 0x1C }
  - { offsetInCU: 0xBEF6, offset: 0xBEF6, size: 0x8, addend: 0x0, symName: __ZNSt3__128__exception_guard_exceptionsINS_29_AllocatorDestroyRangeReverseINS_9allocatorI7StudentEENS_16reverse_iteratorIPS3_EEEEED1B8ue170006Ev, symObjAddr: 0x2680, symBinAddr: 0x100005AFC, symSize: 0x2C }
  - { offsetInCU: 0xBF1F, offset: 0xBF1F, size: 0x8, addend: 0x0, symName: __ZNSt3__128__exception_guard_exceptionsINS_29_AllocatorDestroyRangeReverseINS_9allocatorI7StudentEENS_16reverse_iteratorIPS3_EEEEEC1B8ue170006ES8_, symObjAddr: 0x26AC, symBinAddr: 0x100005B28, symSize: 0x34 }
  - { offsetInCU: 0xBF57, offset: 0xBF57, size: 0x8, addend: 0x0, symName: __ZNSt3__128__exception_guard_exceptionsINS_29_AllocatorDestroyRangeReverseINS_9allocatorI7StudentEENS_16reverse_iteratorIPS3_EEEEEC2B8ue170006ES8_, symObjAddr: 0x26E0, symBinAddr: 0x100005B5C, symSize: 0x30 }
  - { offsetInCU: 0xBF8F, offset: 0xBF8F, size: 0x8, addend: 0x0, symName: __ZNSt3__129_AllocatorDestroyRangeReverseINS_9allocatorI7StudentEENS_16reverse_iteratorIPS2_EEEC2B8ue170006ERS3_RS6_S9_, symObjAddr: 0x2710, symBinAddr: 0x100005B8C, symSize: 0x38 }
  - { offsetInCU: 0xBFEA, offset: 0xBFEA, size: 0x8, addend: 0x0, symName: __ZNSt3__119__to_address_helperINS_16reverse_iteratorIP7StudentEEvE6__callB8ue170006ERKS4_, symObjAddr: 0x2748, symBinAddr: 0x100005BC4, symSize: 0x4C }
  - { offsetInCU: 0xC00D, offset: 0xC00D, size: 0x8, addend: 0x0, symName: __ZNKSt3__116reverse_iteratorIP7StudentEptB8ue170006Ev, symObjAddr: 0x2794, symBinAddr: 0x100005C10, symSize: 0x24 }
  - { offsetInCU: 0xC032, offset: 0xC032, size: 0x8, addend: 0x0, symName: __ZNSt3__128__exception_guard_exceptionsINS_29_AllocatorDestroyRangeReverseINS_9allocatorI7StudentEENS_16reverse_iteratorIPS3_EEEEED2B8ue170006Ev, symObjAddr: 0x27B8, symBinAddr: 0x100005C34, symSize: 0x48 }
  - { offsetInCU: 0xC05B, offset: 0xC05B, size: 0x8, addend: 0x0, symName: __ZNKSt3__129_AllocatorDestroyRangeReverseINS_9allocatorI7StudentEENS_16reverse_iteratorIPS2_EEEclB8ue170006Ev, symObjAddr: 0x2800, symBinAddr: 0x100005C7C, symSize: 0xB4 }
  - { offsetInCU: 0xC081, offset: 0xC081, size: 0x8, addend: 0x0, symName: __ZNSt3__116reverse_iteratorINS0_IP7StudentEEEC1B8ue170006ES3_, symObjAddr: 0x2924, symBinAddr: 0x100005DA0, symSize: 0x3C }
  - { offsetInCU: 0xC0B8, offset: 0xC0B8, size: 0x8, addend: 0x0, symName: __ZNSt3__116reverse_iteratorINS0_IP7StudentEEEppB8ue170006Ev, symObjAddr: 0x29E4, symBinAddr: 0x100005E60, symSize: 0x30 }
  - { offsetInCU: 0xC0DD, offset: 0xC0DD, size: 0x8, addend: 0x0, symName: __ZNKSt3__116reverse_iteratorINS0_IP7StudentEEE4baseB8ue170006Ev, symObjAddr: 0x2A14, symBinAddr: 0x100005E90, symSize: 0x24 }
  - { offsetInCU: 0xC107, offset: 0xC107, size: 0x8, addend: 0x0, symName: __ZNSt3__119__to_address_helperINS_16reverse_iteratorINS1_IP7StudentEEEEvE6__callB8ue170006ERKS5_, symObjAddr: 0x2A38, symBinAddr: 0x100005EB4, symSize: 0x4C }
  - { offsetInCU: 0xC12A, offset: 0xC12A, size: 0x8, addend: 0x0, symName: __ZNKSt3__116reverse_iteratorINS0_IP7StudentEEEptB8ue170006Ev, symObjAddr: 0x2A84, symBinAddr: 0x100005F00, symSize: 0x24 }
  - { offsetInCU: 0xC14F, offset: 0xC14F, size: 0x8, addend: 0x0, symName: __ZNKSt3__116reverse_iteratorINS0_IP7StudentEEEdeB8ue170006Ev, symObjAddr: 0x2AA8, symBinAddr: 0x100005F24, symSize: 0x34 }
  - { offsetInCU: 0xC182, offset: 0xC182, size: 0x8, addend: 0x0, symName: __ZNSt3__116reverse_iteratorIP7StudentEmmB8ue170006Ev, symObjAddr: 0x2ADC, symBinAddr: 0x100005F58, symSize: 0x20 }
  - { offsetInCU: 0xC1A7, offset: 0xC1A7, size: 0x8, addend: 0x0, symName: __ZNSt3__116reverse_iteratorINS0_IP7StudentEEEC2B8ue170006ES3_, symObjAddr: 0x2AFC, symBinAddr: 0x100005F78, symSize: 0x2C }
  - { offsetInCU: 0xC1DE, offset: 0xC1DE, size: 0x8, addend: 0x0, symName: __ZNSt3__116reverse_iteratorIP7StudentEC2B8ue170006ES2_, symObjAddr: 0x2B28, symBinAddr: 0x100005FA4, symSize: 0x28 }
  - { offsetInCU: 0xC215, offset: 0xC215, size: 0x8, addend: 0x0, symName: __ZNSt3__114__split_bufferI7StudentRNS_9allocatorIS1_EEED2Ev, symObjAddr: 0x2B50, symBinAddr: 0x100005FCC, symSize: 0x80 }
  - { offsetInCU: 0xC240, offset: 0xC240, size: 0x8, addend: 0x0, symName: __ZNSt3__114__split_bufferI7StudentRNS_9allocatorIS1_EEE5clearB8ue170006Ev, symObjAddr: 0x2BD0, symBinAddr: 0x10000604C, symSize: 0x28 }
  - { offsetInCU: 0xC265, offset: 0xC265, size: 0x8, addend: 0x0, symName: __ZNKSt3__114__split_bufferI7StudentRNS_9allocatorIS1_EEE8capacityB8ue170006Ev, symObjAddr: 0x2BF8, symBinAddr: 0x100006074, symSize: 0x40 }
  - { offsetInCU: 0xC28A, offset: 0xC28A, size: 0x8, addend: 0x0, symName: __ZNSt3__114__split_bufferI7StudentRNS_9allocatorIS1_EEE17__destruct_at_endB8ue170006EPS1_, symObjAddr: 0x2C38, symBinAddr: 0x1000060B4, symSize: 0x2C }
  - { offsetInCU: 0xC2BC, offset: 0xC2BC, size: 0x8, addend: 0x0, symName: __ZNSt3__114__split_bufferI7StudentRNS_9allocatorIS1_EEE17__destruct_at_endB8ue170006EPS1_NS_17integral_constantIbLb0EEE, symObjAddr: 0x2C64, symBinAddr: 0x1000060E0, symSize: 0x94 }
  - { offsetInCU: 0xC2FC, offset: 0xC2FC, size: 0x8, addend: 0x0, symName: __ZNKSt3__114__split_bufferI7StudentRNS_9allocatorIS1_EEE9__end_capB8ue170006Ev, symObjAddr: 0x2CF8, symBinAddr: 0x100006174, symSize: 0x28 }
  - { offsetInCU: 0xC321, offset: 0xC321, size: 0x8, addend: 0x0, symName: __ZNKSt3__117__compressed_pairIP7StudentRNS_9allocatorIS1_EEE5firstB8ue170006Ev, symObjAddr: 0x2D20, symBinAddr: 0x10000619C, symSize: 0x24 }
  - { offsetInCU: 0xC346, offset: 0xC346, size: 0x8, addend: 0x0, symName: __ZNKSt3__111__wrap_iterIP7StudentE4baseB8ue170006Ev, symObjAddr: 0x3084, symBinAddr: 0x100006500, symSize: 0x18 }
  - { offsetInCU: 0xC36B, offset: 0xC36B, size: 0x8, addend: 0x0, symName: __ZNKSt3__111__wrap_iterIP7StudentEplB8ue170006El, symObjAddr: 0x309C, symBinAddr: 0x100006518, symSize: 0x3C }
  - { offsetInCU: 0xC3AC, offset: 0xC3AC, size: 0x8, addend: 0x0, symName: __ZN10comparatorclE7StudentS0_, symObjAddr: 0x30D8, symBinAddr: 0x100006554, symSize: 0x34 }
  - { offsetInCU: 0xC3EF, offset: 0xC3EF, size: 0x8, addend: 0x0, symName: __ZNKSt3__111__wrap_iterIP7StudentEdeB8ue170006Ev, symObjAddr: 0x310C, symBinAddr: 0x100006588, symSize: 0x18 }
  - { offsetInCU: 0xC414, offset: 0xC414, size: 0x8, addend: 0x0, symName: __ZNSt3__111__wrap_iterIP7StudentEmmB8ue170006Ev, symObjAddr: 0x3124, symBinAddr: 0x1000065A0, symSize: 0x20 }
  - { offsetInCU: 0xC43E, offset: 0xC43E, size: 0x8, addend: 0x0, symName: __ZNSt3__18_IterOpsINS_17_ClassicAlgPolicyEE11__iter_moveB8ue170006IRNS_11__wrap_iterIP7StudentEEEENS_9enable_ifIXsr12is_referenceIDTdeclsr3stdE7declvalIRT_EEEEE5valueEDTclsr3stdE4movedeclsr3stdE7declvalISB_EEEEE4typeEOSA_, symObjAddr: 0x3144, symBinAddr: 0x1000065C0, symSize: 0x28 }
  - { offsetInCU: 0xC46A, offset: 0xC46A, size: 0x8, addend: 0x0, symName: __ZN7StudentaSERKS_, symObjAddr: 0x316C, symBinAddr: 0x1000065E8, symSize: 0x48 }
  - { offsetInCU: 0xC49A, offset: 0xC49A, size: 0x8, addend: 0x0, symName: __ZNSt3__111__wrap_iterIP7StudentEpLB8ue170006El, symObjAddr: 0x31B4, symBinAddr: 0x100006630, symSize: 0x28 }
  - { offsetInCU: 0xC4CD, offset: 0xC4CD, size: 0x8, addend: 0x0, symName: __ZNSt3__18_IterOpsINS_17_ClassicAlgPolicyEE25__validate_iter_referenceB8ue170006IRNS_11__wrap_iterIP7StudentEEEEvv, symObjAddr: 0x31DC, symBinAddr: 0x100006658, symSize: 0x4 }
  - { offsetInCU: 0xC4EB, offset: 0xC4EB, size: 0x8, addend: 0x0, symName: __ZNSt3__16vectorI7StudentNS_9allocatorIS1_EEE11__make_iterB8ue170006EPS1_, symObjAddr: 0x31E0, symBinAddr: 0x10000665C, symSize: 0x30 }
  - { offsetInCU: 0xC51F, offset: 0xC51F, size: 0x8, addend: 0x0, symName: __ZNSt3__111__wrap_iterIP7StudentEC1B8ue170006ES2_, symObjAddr: 0x3210, symBinAddr: 0x10000668C, symSize: 0x34 }
  - { offsetInCU: 0xC556, offset: 0xC556, size: 0x8, addend: 0x0, symName: __ZNSt3__111__wrap_iterIP7StudentEC2B8ue170006ES2_, symObjAddr: 0x3244, symBinAddr: 0x1000066C0, symSize: 0x20 }
  - { offsetInCU: 0xC58D, offset: 0xC58D, size: 0x8, addend: 0x0, symName: __ZNSt3__112basic_stringIcNS_11char_traitsIcEENS_9allocatorIcEEEC2B8ue170006ILi0EEEPKc, symObjAddr: 0x3264, symBinAddr: 0x1000066E0, symSize: 0x58 }
  - { offsetInCU: 0xC5CB, offset: 0xC5CB, size: 0x8, addend: 0x0, symName: __ZNSt3__111char_traitsIcE6lengthB8ue170006EPKc, symObjAddr: 0x32BC, symBinAddr: 0x100006738, symSize: 0x48 }
  - { offsetInCU: 0xC5EE, offset: 0xC5EE, size: 0x8, addend: 0x0, symName: __ZNKSt3__16vectorI7StudentNS_9allocatorIS1_EEE5frontB8ue170006Ev, symObjAddr: 0x3328, symBinAddr: 0x1000067A4, symSize: 0x18 }
  - { offsetInCU: 0xC631, offset: 0xC631, size: 0x8, addend: 0x0, symName: __ZNKSt3__113basic_ostreamIcNS_11char_traitsIcEEE6sentrycvbB8ue170006Ev, symObjAddr: 0x3534, symBinAddr: 0x1000069B0, symSize: 0x1C }
  - { offsetInCU: 0xC656, offset: 0xC656, size: 0x8, addend: 0x0, symName: __ZNSt3__119ostreambuf_iteratorIcNS_11char_traitsIcEEEC1B8ue170006ERNS_13basic_ostreamIcS2_EE, symObjAddr: 0x3798, symBinAddr: 0x100006C14, symSize: 0x34 }
  - { offsetInCU: 0xC68D, offset: 0xC68D, size: 0x8, addend: 0x0, symName: __ZNKSt3__18ios_base5flagsB8ue170006Ev, symObjAddr: 0x37CC, symBinAddr: 0x100006C48, symSize: 0x18 }
  - { offsetInCU: 0xC6B3, offset: 0xC6B3, size: 0x8, addend: 0x0, symName: __ZNKSt3__19basic_iosIcNS_11char_traitsIcEEE4fillB8ue170006Ev, symObjAddr: 0x37E4, symBinAddr: 0x100006C60, symSize: 0x64 }
  - { offsetInCU: 0xC6DA, offset: 0xC6DA, size: 0x8, addend: 0x0, symName: __ZNKSt3__119ostreambuf_iteratorIcNS_11char_traitsIcEEE6failedB8ue170006Ev, symObjAddr: 0x3848, symBinAddr: 0x100006CC4, symSize: 0x24 }
  - { offsetInCU: 0xC6FF, offset: 0xC6FF, size: 0x8, addend: 0x0, symName: __ZNSt3__19basic_iosIcNS_11char_traitsIcEEE8setstateB8ue170006Ej, symObjAddr: 0x386C, symBinAddr: 0x100006CE8, symSize: 0x2C }
  - { offsetInCU: 0xC733, offset: 0xC733, size: 0x8, addend: 0x0, symName: __ZNKSt3__18ios_base5widthB8ue170006Ev, symObjAddr: 0x3898, symBinAddr: 0x100006D14, symSize: 0x18 }
  - { offsetInCU: 0xC75A, offset: 0xC75A, size: 0x8, addend: 0x0, symName: __ZNSt3__115basic_streambufIcNS_11char_traitsIcEEE5sputnB8ue170006EPKcl, symObjAddr: 0x38B0, symBinAddr: 0x100006D2C, symSize: 0x3C }
  - { offsetInCU: 0xC79B, offset: 0xC79B, size: 0x8, addend: 0x0, symName: __ZNSt3__112basic_stringIcNS_11char_traitsIcEENS_9allocatorIcEEEC1B8ue170006Emc, symObjAddr: 0x38EC, symBinAddr: 0x100006D68, symSize: 0x3C }
  - { offsetInCU: 0xC7E2, offset: 0xC7E2, size: 0x8, addend: 0x0, symName: __ZNKSt3__112basic_stringIcNS_11char_traitsIcEENS_9allocatorIcEEE4dataB8ue170006Ev, symObjAddr: 0x3928, symBinAddr: 0x100006DA4, symSize: 0x28 }
  - { offsetInCU: 0xC807, offset: 0xC807, size: 0x8, addend: 0x0, symName: __ZNSt3__18ios_base5widthB8ue170006El, symObjAddr: 0x3950, symBinAddr: 0x100006DCC, symSize: 0x2C }
  - { offsetInCU: 0xC84C, offset: 0xC84C, size: 0x8, addend: 0x0, symName: __ZNSt3__112basic_stringIcNS_11char_traitsIcEENS_9allocatorIcEEEC2B8ue170006Emc, symObjAddr: 0x397C, symBinAddr: 0x100006DF8, symSize: 0x4C }
  - { offsetInCU: 0xC893, offset: 0xC893, size: 0x8, addend: 0x0, symName: __ZNKSt3__112basic_stringIcNS_11char_traitsIcEENS_9allocatorIcEEE13__get_pointerB8ue170006Ev, symObjAddr: 0x39DC, symBinAddr: 0x100006E58, symSize: 0x54 }
  - { offsetInCU: 0xC8B8, offset: 0xC8B8, size: 0x8, addend: 0x0, symName: __ZNKSt3__112basic_stringIcNS_11char_traitsIcEENS_9allocatorIcEEE9__is_longB8ue170006Ev, symObjAddr: 0x3A30, symBinAddr: 0x100006EAC, symSize: 0x74 }
  - { offsetInCU: 0xC8DD, offset: 0xC8DD, size: 0x8, addend: 0x0, symName: __ZNKSt3__112basic_stringIcNS_11char_traitsIcEENS_9allocatorIcEEE18__get_long_pointerB8ue170006Ev, symObjAddr: 0x3AA4, symBinAddr: 0x100006F20, symSize: 0x28 }
  - { offsetInCU: 0xC902, offset: 0xC902, size: 0x8, addend: 0x0, symName: __ZNKSt3__112basic_stringIcNS_11char_traitsIcEENS_9allocatorIcEEE19__get_short_pointerB8ue170006Ev, symObjAddr: 0x3ACC, symBinAddr: 0x100006F48, symSize: 0x28 }
  - { offsetInCU: 0xC927, offset: 0xC927, size: 0x8, addend: 0x0, symName: __ZNKSt3__117__compressed_pairINS_12basic_stringIcNS_11char_traitsIcEENS_9allocatorIcEEE5__repES5_E5firstB8ue170006Ev, symObjAddr: 0x3AF4, symBinAddr: 0x100006F70, symSize: 0x24 }
  - { offsetInCU: 0xC94C, offset: 0xC94C, size: 0x8, addend: 0x0, symName: __ZNKSt3__122__compressed_pair_elemINS_12basic_stringIcNS_11char_traitsIcEENS_9allocatorIcEEE5__repELi0ELb0EE5__getB8ue170006Ev, symObjAddr: 0x3B18, symBinAddr: 0x100006F94, symSize: 0x14 }
  - { offsetInCU: 0xC971, offset: 0xC971, size: 0x8, addend: 0x0, symName: __ZNSt3__114pointer_traitsIPKcE10pointer_toB8ue170006ERS1_, symObjAddr: 0x3B2C, symBinAddr: 0x100006FA8, symSize: 0x14 }
  - { offsetInCU: 0xC994, offset: 0xC994, size: 0x8, addend: 0x0, symName: __ZNSt3__119ostreambuf_iteratorIcNS_11char_traitsIcEEEC2B8ue170006ERNS_13basic_ostreamIcS2_EE, symObjAddr: 0x3B40, symBinAddr: 0x100006FBC, symSize: 0x68 }
  - { offsetInCU: 0xC9CA, offset: 0xC9CA, size: 0x8, addend: 0x0, symName: __ZNKSt3__19basic_iosIcNS_11char_traitsIcEEE5rdbufB8ue170006Ev, symObjAddr: 0x3BA8, symBinAddr: 0x100007024, symSize: 0x24 }
  - { offsetInCU: 0xC9F1, offset: 0xC9F1, size: 0x8, addend: 0x0, symName: __ZNKSt3__18ios_base5rdbufB8ue170006Ev, symObjAddr: 0x3BCC, symBinAddr: 0x100007048, symSize: 0x18 }
  - { offsetInCU: 0xCA16, offset: 0xCA16, size: 0x8, addend: 0x0, symName: __ZNSt3__111char_traitsIcE11eq_int_typeB8ue170006Eii, symObjAddr: 0x3BE4, symBinAddr: 0x100007060, symSize: 0x28 }
  - { offsetInCU: 0xCA49, offset: 0xCA49, size: 0x8, addend: 0x0, symName: __ZNSt3__111char_traitsIcE3eofB8ue170006Ev, symObjAddr: 0x3C0C, symBinAddr: 0x100007088, symSize: 0x8 }
  - { offsetInCU: 0xCA5C, offset: 0xCA5C, size: 0x8, addend: 0x0, symName: __ZNKSt3__19basic_iosIcNS_11char_traitsIcEEE5widenB8ue170006Ec, symObjAddr: 0x3C14, symBinAddr: 0x100007090, symSize: 0x8C }
  - { offsetInCU: 0xCAC9, offset: 0xCAC9, size: 0x8, addend: 0x0, symName: __ZNKSt3__15ctypeIcE5widenB8ue170006Ec, symObjAddr: 0x3CCC, symBinAddr: 0x100007148, symSize: 0x38 }
  - { offsetInCU: 0xCAFC, offset: 0xCAFC, size: 0x8, addend: 0x0, symName: __ZNSt3__18ios_base8setstateB8ue170006Ej, symObjAddr: 0x3D04, symBinAddr: 0x100007180, symSize: 0x34 }
  - { offsetInCU: 0xCB32, offset: 0xCB32, size: 0x8, addend: 0x0, symName: __ZNKSt3__112basic_stringIcNS_11char_traitsIcEENS_9allocatorIcEEE4sizeB8ue170006Ev, symObjAddr: 0x3D38, symBinAddr: 0x1000071B4, symSize: 0x54 }
  - { offsetInCU: 0xCB57, offset: 0xCB57, size: 0x8, addend: 0x0, symName: __ZNKSt3__112basic_stringIcNS_11char_traitsIcEENS_9allocatorIcEEE15__get_long_sizeB8ue170006Ev, symObjAddr: 0x3D8C, symBinAddr: 0x100007208, symSize: 0x28 }
  - { offsetInCU: 0xCB7C, offset: 0xCB7C, size: 0x8, addend: 0x0, symName: __ZNKSt3__112basic_stringIcNS_11char_traitsIcEENS_9allocatorIcEEE16__get_short_sizeB8ue170006Ev, symObjAddr: 0x3DB4, symBinAddr: 0x100007230, symSize: 0x34 }
  - { offsetInCU: 0xCBA0, offset: 0xCBA0, size: 0x8, addend: 0x0, symName: __ZNSt3__16vectorI7StudentNS_9allocatorIS1_EEE8pop_backEv, symObjAddr: 0x3E40, symBinAddr: 0x1000072BC, symSize: 0x2C }
  - { offsetInCU: 0xCBC7, offset: 0xCBC7, size: 0x8, addend: 0x0, symName: __ZNSt3__111__wrap_iterIP7StudentEppB8ue170006Ev, symObjAddr: 0x4248, symBinAddr: 0x1000076C4, symSize: 0x20 }
  - { offsetInCU: 0xCBEC, offset: 0xCBEC, size: 0x8, addend: 0x0, symName: __ZNSt3__16vectorI7StudentNS_9allocatorIS1_EEE17__destruct_at_endB8ue170006EPS1_, symObjAddr: 0x4268, symBinAddr: 0x1000076E4, symSize: 0x4C }
  - { offsetInCU: 0xCC2F, offset: 0xCC2F, size: 0x8, addend: 0x0, symName: __ZNKSt3__16vectorI7StudentNS_9allocatorIS1_EEE17__annotate_shrinkB8ue170006Em, symObjAddr: 0x42B4, symBinAddr: 0x100007730, symSize: 0xB4 }
...
